

Microchip MPLAB XC8 Assembler V2.45 build 20230818022343 
                                                                                               Sun Jan 07 23:46:52 2024

Microchip MPLAB XC8 C Compiler v2.45 (Free license) build 20230818022343 Og1 
     1                           	processor	16F887
     2                           	pagewidth 120
     3                           	opt	flic
     4                           	psect	idataCOMMON,global,class=CODE,delta=2,noexec
     5                           	psect	idataBANK1,global,class=CODE,delta=2,noexec
     6                           	psect	strings,global,class=STRING,delta=2,noexec
     7                           	psect	cinit,global,class=CODE,merge=1,delta=2
     8                           	psect	bssCOMMON,global,class=COMMON,space=1,delta=1,noexec
     9                           	psect	dataCOMMON,global,class=COMMON,space=1,delta=1,noexec
    10                           	psect	bssBANK0,global,class=BANK0,space=1,delta=1,noexec
    11                           	psect	dataBANK1,global,class=BANK1,space=1,delta=1,noexec
    12                           	psect	bssBANK3,global,class=BANK3,space=1,delta=1,noexec
    13                           	psect	inittext,global,class=CODE,delta=2
    14                           	psect	clrtext,global,class=CODE,delta=2
    15                           	psect	cstackCOMMON,global,class=COMMON,space=1,delta=1,noexec
    16                           	psect	cstackBANK0,global,class=BANK0,space=1,delta=1,noexec
    17                           	psect	maintext,global,class=CODE,split=1,delta=2
    18                           	psect	text1,local,class=CODE,merge=1,delta=2
    19                           	psect	text2,local,class=CODE,merge=1,delta=2
    20                           	psect	text3,local,class=CODE,merge=1,delta=2,group=2
    21                           	psect	text4,local,class=CODE,merge=1,delta=2,group=2
    22                           	psect	text5,local,class=CODE,merge=1,delta=2,group=2
    23                           	psect	text6,local,class=CODE,merge=1,delta=2,group=2
    24                           	psect	text7,local,class=CODE,merge=1,delta=2
    25                           	psect	text8,local,class=CODE,merge=1,delta=2
    26                           	psect	text9,local,class=CODE,merge=1,delta=2
    27                           	psect	text10,local,class=CODE,merge=1,delta=2
    28                           	psect	text11,local,class=CODE,merge=1,delta=2
    29                           	psect	text12,local,class=CODE,merge=1,delta=2
    30                           	psect	text13,local,class=CODE,merge=1,delta=2
    31                           	psect	text14,local,class=CODE,merge=1,delta=2
    32                           	psect	text15,local,class=CODE,merge=1,delta=2
    33                           	psect	text16,local,class=CODE,merge=1,delta=2
    34                           	psect	text17,local,class=CODE,merge=1,delta=2
    35                           	psect	text18,local,class=CODE,merge=1,delta=2
    36                           	psect	text19,local,class=CODE,merge=1,delta=2
    37                           	psect	text20,local,class=CODE,merge=1,delta=2
    38                           	psect	intentry,global,class=CODE,delta=2
    39                           	psect	text21,local,class=CODE,merge=1,delta=2
    40                           	psect	config,global,abs,ovrld,class=CONFIG,space=4,delta=2,noexec
    41                           	dabs	1,0x7E,2
    42     0000                     
    43                           ; Generated 22/03/2023 GMT
    44                           ; 
    45                           ; Copyright © 2023, Microchip Technology Inc. and its subsidiaries ("Microchip")
    46                           ; All rights reserved.
    47                           ; 
    48                           ; This software is developed by Microchip Technology Inc. and its subsidiaries ("Microch
      +                          ip").
    49                           ; 
    50                           ; Redistribution and use in source and binary forms, with or without modification, are
    51                           ; permitted provided that the following conditions are met:
    52                           ; 
    53                           ;     1. Redistributions of source code must retain the above copyright notice, this lis
      +                          t of
    54                           ;        conditions and the following disclaimer.
    55                           ; 
    56                           ;     2. Redistributions in binary form must reproduce the above copyright notice, this 
      +                          list
    57                           ;        of conditions and the following disclaimer in the documentation and/or other
    58                           ;        materials provided with the distribution. Publication is not required when
    59                           ;        this file is used in an embedded application.
    60                           ; 
    61                           ;     3. Microchip's name may not be used to endorse or promote products derived from th
      +                          is
    62                           ;        software without specific prior written permission.
    63                           ; 
    64                           ; THIS SOFTWARE IS PROVIDED BY MICROCHIP "AS IS" AND ANY EXPRESS OR IMPLIED WARRANTIES,
    65                           ; INCLUDING, BUT NOT LIMITED TO, THE IMPLIED WARRANTIES OF MERCHANTABILITY AND FITNESS F
      +                          OR
    66                           ; PURPOSE ARE DISCLAIMED.  IN NO EVENT SHALL MICROCHIP BE LIABLE FOR ANY DIRECT, INDIREC
      +                          T,
    67                           ; INCIDENTAL, SPECIAL, EXEMPLARY, OR CONSEQUENTIAL DAMAGES (INCLUDING BUT NOT LIMITED TO
    68                           ; PROCUREMENT OF SUBSTITUTE GOODS OR SERVICES; LOSS OF USE, DATA OR PROFITS; OR BUSINESS
    69                           ; INTERRUPTION) HOWSOEVER CAUSED AND ON ANY THEORY OF LIABILITY, WHETHER IN CONTRACT, ST
      +                          RICT
    70                           ; LIABILITY, OR TORT (INCLUDING NEGLIGENCE OR OTHERWISE) ARISING IN ANY WAY OUT OF THE U
      +                          SE OF
    71                           ; THIS SOFTWARE, EVEN IF ADVISED OF THE POSSIBILITY OF SUCH DAMAGE.
    72                           ; 
    73                           ; 
    74                           ; Code-generator required, PIC16F887 Definitions
    75                           ; 
    76                           ; SFR Addresses
    77     0000                     	;# 
    78     0001                     	;# 
    79     0002                     	;# 
    80     0003                     	;# 
    81     0004                     	;# 
    82     0005                     	;# 
    83     0006                     	;# 
    84     0007                     	;# 
    85     0008                     	;# 
    86     0009                     	;# 
    87     000A                     	;# 
    88     000B                     	;# 
    89     000C                     	;# 
    90     000D                     	;# 
    91     000E                     	;# 
    92     000E                     	;# 
    93     000F                     	;# 
    94     0010                     	;# 
    95     0011                     	;# 
    96     0012                     	;# 
    97     0013                     	;# 
    98     0014                     	;# 
    99     0015                     	;# 
   100     0015                     	;# 
   101     0016                     	;# 
   102     0017                     	;# 
   103     0018                     	;# 
   104     0019                     	;# 
   105     001A                     	;# 
   106     001B                     	;# 
   107     001B                     	;# 
   108     001C                     	;# 
   109     001D                     	;# 
   110     001E                     	;# 
   111     001F                     	;# 
   112     0081                     	;# 
   113     0085                     	;# 
   114     0086                     	;# 
   115     0087                     	;# 
   116     0088                     	;# 
   117     0089                     	;# 
   118     008C                     	;# 
   119     008D                     	;# 
   120     008E                     	;# 
   121     008F                     	;# 
   122     0090                     	;# 
   123     0091                     	;# 
   124     0092                     	;# 
   125     0093                     	;# 
   126     0093                     	;# 
   127     0093                     	;# 
   128     0094                     	;# 
   129     0095                     	;# 
   130     0096                     	;# 
   131     0097                     	;# 
   132     0098                     	;# 
   133     0099                     	;# 
   134     009A                     	;# 
   135     009B                     	;# 
   136     009C                     	;# 
   137     009D                     	;# 
   138     009E                     	;# 
   139     009F                     	;# 
   140     0105                     	;# 
   141     0107                     	;# 
   142     0108                     	;# 
   143     0109                     	;# 
   144     010C                     	;# 
   145     010C                     	;# 
   146     010D                     	;# 
   147     010E                     	;# 
   148     010F                     	;# 
   149     0185                     	;# 
   150     0187                     	;# 
   151     0188                     	;# 
   152     0189                     	;# 
   153     018C                     	;# 
   154     018D                     	;# 
   155     0000                     	;# 
   156     0001                     	;# 
   157     0002                     	;# 
   158     0003                     	;# 
   159     0004                     	;# 
   160     0005                     	;# 
   161     0006                     	;# 
   162     0007                     	;# 
   163     0008                     	;# 
   164     0009                     	;# 
   165     000A                     	;# 
   166     000B                     	;# 
   167     000C                     	;# 
   168     000D                     	;# 
   169     000E                     	;# 
   170     000E                     	;# 
   171     000F                     	;# 
   172     0010                     	;# 
   173     0011                     	;# 
   174     0012                     	;# 
   175     0013                     	;# 
   176     0014                     	;# 
   177     0015                     	;# 
   178     0015                     	;# 
   179     0016                     	;# 
   180     0017                     	;# 
   181     0018                     	;# 
   182     0019                     	;# 
   183     001A                     	;# 
   184     001B                     	;# 
   185     001B                     	;# 
   186     001C                     	;# 
   187     001D                     	;# 
   188     001E                     	;# 
   189     001F                     	;# 
   190     0081                     	;# 
   191     0085                     	;# 
   192     0086                     	;# 
   193     0087                     	;# 
   194     0088                     	;# 
   195     0089                     	;# 
   196     008C                     	;# 
   197     008D                     	;# 
   198     008E                     	;# 
   199     008F                     	;# 
   200     0090                     	;# 
   201     0091                     	;# 
   202     0092                     	;# 
   203     0093                     	;# 
   204     0093                     	;# 
   205     0093                     	;# 
   206     0094                     	;# 
   207     0095                     	;# 
   208     0096                     	;# 
   209     0097                     	;# 
   210     0098                     	;# 
   211     0099                     	;# 
   212     009A                     	;# 
   213     009B                     	;# 
   214     009C                     	;# 
   215     009D                     	;# 
   216     009E                     	;# 
   217     009F                     	;# 
   218     0105                     	;# 
   219     0107                     	;# 
   220     0108                     	;# 
   221     0109                     	;# 
   222     010C                     	;# 
   223     010C                     	;# 
   224     010D                     	;# 
   225     010E                     	;# 
   226     010F                     	;# 
   227     0185                     	;# 
   228     0187                     	;# 
   229     0188                     	;# 
   230     0189                     	;# 
   231     018C                     	;# 
   232     018D                     	;# 
   233     0000                     	;# 
   234     0001                     	;# 
   235     0002                     	;# 
   236     0003                     	;# 
   237     0004                     	;# 
   238     0005                     	;# 
   239     0006                     	;# 
   240     0007                     	;# 
   241     0008                     	;# 
   242     0009                     	;# 
   243     000A                     	;# 
   244     000B                     	;# 
   245     000C                     	;# 
   246     000D                     	;# 
   247     000E                     	;# 
   248     000E                     	;# 
   249     000F                     	;# 
   250     0010                     	;# 
   251     0011                     	;# 
   252     0012                     	;# 
   253     0013                     	;# 
   254     0014                     	;# 
   255     0015                     	;# 
   256     0015                     	;# 
   257     0016                     	;# 
   258     0017                     	;# 
   259     0018                     	;# 
   260     0019                     	;# 
   261     001A                     	;# 
   262     001B                     	;# 
   263     001B                     	;# 
   264     001C                     	;# 
   265     001D                     	;# 
   266     001E                     	;# 
   267     001F                     	;# 
   268     0081                     	;# 
   269     0085                     	;# 
   270     0086                     	;# 
   271     0087                     	;# 
   272     0088                     	;# 
   273     0089                     	;# 
   274     008C                     	;# 
   275     008D                     	;# 
   276     008E                     	;# 
   277     008F                     	;# 
   278     0090                     	;# 
   279     0091                     	;# 
   280     0092                     	;# 
   281     0093                     	;# 
   282     0093                     	;# 
   283     0093                     	;# 
   284     0094                     	;# 
   285     0095                     	;# 
   286     0096                     	;# 
   287     0097                     	;# 
   288     0098                     	;# 
   289     0099                     	;# 
   290     009A                     	;# 
   291     009B                     	;# 
   292     009C                     	;# 
   293     009D                     	;# 
   294     009E                     	;# 
   295     009F                     	;# 
   296     0105                     	;# 
   297     0107                     	;# 
   298     0108                     	;# 
   299     0109                     	;# 
   300     010C                     	;# 
   301     010C                     	;# 
   302     010D                     	;# 
   303     010E                     	;# 
   304     010F                     	;# 
   305     0185                     	;# 
   306     0187                     	;# 
   307     0188                     	;# 
   308     0189                     	;# 
   309     018C                     	;# 
   310     018D                     	;# 
   311     0000                     	;# 
   312     0001                     	;# 
   313     0002                     	;# 
   314     0003                     	;# 
   315     0004                     	;# 
   316     0005                     	;# 
   317     0006                     	;# 
   318     0007                     	;# 
   319     0008                     	;# 
   320     0009                     	;# 
   321     000A                     	;# 
   322     000B                     	;# 
   323     000C                     	;# 
   324     000D                     	;# 
   325     000E                     	;# 
   326     000E                     	;# 
   327     000F                     	;# 
   328     0010                     	;# 
   329     0011                     	;# 
   330     0012                     	;# 
   331     0013                     	;# 
   332     0014                     	;# 
   333     0015                     	;# 
   334     0015                     	;# 
   335     0016                     	;# 
   336     0017                     	;# 
   337     0018                     	;# 
   338     0019                     	;# 
   339     001A                     	;# 
   340     001B                     	;# 
   341     001B                     	;# 
   342     001C                     	;# 
   343     001D                     	;# 
   344     001E                     	;# 
   345     001F                     	;# 
   346     0081                     	;# 
   347     0085                     	;# 
   348     0086                     	;# 
   349     0087                     	;# 
   350     0088                     	;# 
   351     0089                     	;# 
   352     008C                     	;# 
   353     008D                     	;# 
   354     008E                     	;# 
   355     008F                     	;# 
   356     0090                     	;# 
   357     0091                     	;# 
   358     0092                     	;# 
   359     0093                     	;# 
   360     0093                     	;# 
   361     0093                     	;# 
   362     0094                     	;# 
   363     0095                     	;# 
   364     0096                     	;# 
   365     0097                     	;# 
   366     0098                     	;# 
   367     0099                     	;# 
   368     009A                     	;# 
   369     009B                     	;# 
   370     009C                     	;# 
   371     009D                     	;# 
   372     009E                     	;# 
   373     009F                     	;# 
   374     0105                     	;# 
   375     0107                     	;# 
   376     0108                     	;# 
   377     0109                     	;# 
   378     010C                     	;# 
   379     010C                     	;# 
   380     010D                     	;# 
   381     010E                     	;# 
   382     010F                     	;# 
   383     0185                     	;# 
   384     0187                     	;# 
   385     0188                     	;# 
   386     0189                     	;# 
   387     018C                     	;# 
   388     018D                     	;# 
   389     0000                     	;# 
   390     0001                     	;# 
   391     0002                     	;# 
   392     0003                     	;# 
   393     0004                     	;# 
   394     0005                     	;# 
   395     0006                     	;# 
   396     0007                     	;# 
   397     0008                     	;# 
   398     0009                     	;# 
   399     000A                     	;# 
   400     000B                     	;# 
   401     000C                     	;# 
   402     000D                     	;# 
   403     000E                     	;# 
   404     000E                     	;# 
   405     000F                     	;# 
   406     0010                     	;# 
   407     0011                     	;# 
   408     0012                     	;# 
   409     0013                     	;# 
   410     0014                     	;# 
   411     0015                     	;# 
   412     0015                     	;# 
   413     0016                     	;# 
   414     0017                     	;# 
   415     0018                     	;# 
   416     0019                     	;# 
   417     001A                     	;# 
   418     001B                     	;# 
   419     001B                     	;# 
   420     001C                     	;# 
   421     001D                     	;# 
   422     001E                     	;# 
   423     001F                     	;# 
   424     0081                     	;# 
   425     0085                     	;# 
   426     0086                     	;# 
   427     0087                     	;# 
   428     0088                     	;# 
   429     0089                     	;# 
   430     008C                     	;# 
   431     008D                     	;# 
   432     008E                     	;# 
   433     008F                     	;# 
   434     0090                     	;# 
   435     0091                     	;# 
   436     0092                     	;# 
   437     0093                     	;# 
   438     0093                     	;# 
   439     0093                     	;# 
   440     0094                     	;# 
   441     0095                     	;# 
   442     0096                     	;# 
   443     0097                     	;# 
   444     0098                     	;# 
   445     0099                     	;# 
   446     009A                     	;# 
   447     009B                     	;# 
   448     009C                     	;# 
   449     009D                     	;# 
   450     009E                     	;# 
   451     009F                     	;# 
   452     0105                     	;# 
   453     0107                     	;# 
   454     0108                     	;# 
   455     0109                     	;# 
   456     010C                     	;# 
   457     010C                     	;# 
   458     010D                     	;# 
   459     010E                     	;# 
   460     010F                     	;# 
   461     0185                     	;# 
   462     0187                     	;# 
   463     0188                     	;# 
   464     0189                     	;# 
   465     018C                     	;# 
   466     018D                     	;# 
   467     0000                     	;# 
   468     0001                     	;# 
   469     0002                     	;# 
   470     0003                     	;# 
   471     0004                     	;# 
   472     0005                     	;# 
   473     0006                     	;# 
   474     0007                     	;# 
   475     0008                     	;# 
   476     0009                     	;# 
   477     000A                     	;# 
   478     000B                     	;# 
   479     000C                     	;# 
   480     000D                     	;# 
   481     000E                     	;# 
   482     000E                     	;# 
   483     000F                     	;# 
   484     0010                     	;# 
   485     0011                     	;# 
   486     0012                     	;# 
   487     0013                     	;# 
   488     0014                     	;# 
   489     0015                     	;# 
   490     0015                     	;# 
   491     0016                     	;# 
   492     0017                     	;# 
   493     0018                     	;# 
   494     0019                     	;# 
   495     001A                     	;# 
   496     001B                     	;# 
   497     001B                     	;# 
   498     001C                     	;# 
   499     001D                     	;# 
   500     001E                     	;# 
   501     001F                     	;# 
   502     0081                     	;# 
   503     0085                     	;# 
   504     0086                     	;# 
   505     0087                     	;# 
   506     0088                     	;# 
   507     0089                     	;# 
   508     008C                     	;# 
   509     008D                     	;# 
   510     008E                     	;# 
   511     008F                     	;# 
   512     0090                     	;# 
   513     0091                     	;# 
   514     0092                     	;# 
   515     0093                     	;# 
   516     0093                     	;# 
   517     0093                     	;# 
   518     0094                     	;# 
   519     0095                     	;# 
   520     0096                     	;# 
   521     0097                     	;# 
   522     0098                     	;# 
   523     0099                     	;# 
   524     009A                     	;# 
   525     009B                     	;# 
   526     009C                     	;# 
   527     009D                     	;# 
   528     009E                     	;# 
   529     009F                     	;# 
   530     0105                     	;# 
   531     0107                     	;# 
   532     0108                     	;# 
   533     0109                     	;# 
   534     010C                     	;# 
   535     010C                     	;# 
   536     010D                     	;# 
   537     010E                     	;# 
   538     010F                     	;# 
   539     0185                     	;# 
   540     0187                     	;# 
   541     0188                     	;# 
   542     0189                     	;# 
   543     018C                     	;# 
   544     018D                     	;# 
   545     0000                     	;# 
   546     0001                     	;# 
   547     0002                     	;# 
   548     0003                     	;# 
   549     0004                     	;# 
   550     0005                     	;# 
   551     0006                     	;# 
   552     0007                     	;# 
   553     0008                     	;# 
   554     0009                     	;# 
   555     000A                     	;# 
   556     000B                     	;# 
   557     000C                     	;# 
   558     000D                     	;# 
   559     000E                     	;# 
   560     000E                     	;# 
   561     000F                     	;# 
   562     0010                     	;# 
   563     0011                     	;# 
   564     0012                     	;# 
   565     0013                     	;# 
   566     0014                     	;# 
   567     0015                     	;# 
   568     0015                     	;# 
   569     0016                     	;# 
   570     0017                     	;# 
   571     0018                     	;# 
   572     0019                     	;# 
   573     001A                     	;# 
   574     001B                     	;# 
   575     001B                     	;# 
   576     001C                     	;# 
   577     001D                     	;# 
   578     001E                     	;# 
   579     001F                     	;# 
   580     0081                     	;# 
   581     0085                     	;# 
   582     0086                     	;# 
   583     0087                     	;# 
   584     0088                     	;# 
   585     0089                     	;# 
   586     008C                     	;# 
   587     008D                     	;# 
   588     008E                     	;# 
   589     008F                     	;# 
   590     0090                     	;# 
   591     0091                     	;# 
   592     0092                     	;# 
   593     0093                     	;# 
   594     0093                     	;# 
   595     0093                     	;# 
   596     0094                     	;# 
   597     0095                     	;# 
   598     0096                     	;# 
   599     0097                     	;# 
   600     0098                     	;# 
   601     0099                     	;# 
   602     009A                     	;# 
   603     009B                     	;# 
   604     009C                     	;# 
   605     009D                     	;# 
   606     009E                     	;# 
   607     009F                     	;# 
   608     0105                     	;# 
   609     0107                     	;# 
   610     0108                     	;# 
   611     0109                     	;# 
   612     010C                     	;# 
   613     010C                     	;# 
   614     010D                     	;# 
   615     010E                     	;# 
   616     010F                     	;# 
   617     0185                     	;# 
   618     0187                     	;# 
   619     0188                     	;# 
   620     0189                     	;# 
   621     018C                     	;# 
   622     018D                     	;# 
   623     0000                     	;# 
   624     0001                     	;# 
   625     0002                     	;# 
   626     0003                     	;# 
   627     0004                     	;# 
   628     0005                     	;# 
   629     0006                     	;# 
   630     0007                     	;# 
   631     0008                     	;# 
   632     0009                     	;# 
   633     000A                     	;# 
   634     000B                     	;# 
   635     000C                     	;# 
   636     000D                     	;# 
   637     000E                     	;# 
   638     000E                     	;# 
   639     000F                     	;# 
   640     0010                     	;# 
   641     0011                     	;# 
   642     0012                     	;# 
   643     0013                     	;# 
   644     0014                     	;# 
   645     0015                     	;# 
   646     0015                     	;# 
   647     0016                     	;# 
   648     0017                     	;# 
   649     0018                     	;# 
   650     0019                     	;# 
   651     001A                     	;# 
   652     001B                     	;# 
   653     001B                     	;# 
   654     001C                     	;# 
   655     001D                     	;# 
   656     001E                     	;# 
   657     001F                     	;# 
   658     0081                     	;# 
   659     0085                     	;# 
   660     0086                     	;# 
   661     0087                     	;# 
   662     0088                     	;# 
   663     0089                     	;# 
   664     008C                     	;# 
   665     008D                     	;# 
   666     008E                     	;# 
   667     008F                     	;# 
   668     0090                     	;# 
   669     0091                     	;# 
   670     0092                     	;# 
   671     0093                     	;# 
   672     0093                     	;# 
   673     0093                     	;# 
   674     0094                     	;# 
   675     0095                     	;# 
   676     0096                     	;# 
   677     0097                     	;# 
   678     0098                     	;# 
   679     0099                     	;# 
   680     009A                     	;# 
   681     009B                     	;# 
   682     009C                     	;# 
   683     009D                     	;# 
   684     009E                     	;# 
   685     009F                     	;# 
   686     0105                     	;# 
   687     0107                     	;# 
   688     0108                     	;# 
   689     0109                     	;# 
   690     010C                     	;# 
   691     010C                     	;# 
   692     010D                     	;# 
   693     010E                     	;# 
   694     010F                     	;# 
   695     0185                     	;# 
   696     0187                     	;# 
   697     0188                     	;# 
   698     0189                     	;# 
   699     018C                     	;# 
   700     018D                     	;# 
   701     0000                     	;# 
   702     0001                     	;# 
   703     0002                     	;# 
   704     0003                     	;# 
   705     0004                     	;# 
   706     0005                     	;# 
   707     0006                     	;# 
   708     0007                     	;# 
   709     0008                     	;# 
   710     0009                     	;# 
   711     000A                     	;# 
   712     000B                     	;# 
   713     000C                     	;# 
   714     000D                     	;# 
   715     000E                     	;# 
   716     000E                     	;# 
   717     000F                     	;# 
   718     0010                     	;# 
   719     0011                     	;# 
   720     0012                     	;# 
   721     0013                     	;# 
   722     0014                     	;# 
   723     0015                     	;# 
   724     0015                     	;# 
   725     0016                     	;# 
   726     0017                     	;# 
   727     0018                     	;# 
   728     0019                     	;# 
   729     001A                     	;# 
   730     001B                     	;# 
   731     001B                     	;# 
   732     001C                     	;# 
   733     001D                     	;# 
   734     001E                     	;# 
   735     001F                     	;# 
   736     0081                     	;# 
   737     0085                     	;# 
   738     0086                     	;# 
   739     0087                     	;# 
   740     0088                     	;# 
   741     0089                     	;# 
   742     008C                     	;# 
   743     008D                     	;# 
   744     008E                     	;# 
   745     008F                     	;# 
   746     0090                     	;# 
   747     0091                     	;# 
   748     0092                     	;# 
   749     0093                     	;# 
   750     0093                     	;# 
   751     0093                     	;# 
   752     0094                     	;# 
   753     0095                     	;# 
   754     0096                     	;# 
   755     0097                     	;# 
   756     0098                     	;# 
   757     0099                     	;# 
   758     009A                     	;# 
   759     009B                     	;# 
   760     009C                     	;# 
   761     009D                     	;# 
   762     009E                     	;# 
   763     009F                     	;# 
   764     0105                     	;# 
   765     0107                     	;# 
   766     0108                     	;# 
   767     0109                     	;# 
   768     010C                     	;# 
   769     010C                     	;# 
   770     010D                     	;# 
   771     010E                     	;# 
   772     010F                     	;# 
   773     0185                     	;# 
   774     0187                     	;# 
   775     0188                     	;# 
   776     0189                     	;# 
   777     018C                     	;# 
   778     018D                     	;# 
   779     0000                     	;# 
   780     0001                     	;# 
   781     0002                     	;# 
   782     0003                     	;# 
   783     0004                     	;# 
   784     0005                     	;# 
   785     0006                     	;# 
   786     0007                     	;# 
   787     0008                     	;# 
   788     0009                     	;# 
   789     000A                     	;# 
   790     000B                     	;# 
   791     000C                     	;# 
   792     000D                     	;# 
   793     000E                     	;# 
   794     000E                     	;# 
   795     000F                     	;# 
   796     0010                     	;# 
   797     0011                     	;# 
   798     0012                     	;# 
   799     0013                     	;# 
   800     0014                     	;# 
   801     0015                     	;# 
   802     0015                     	;# 
   803     0016                     	;# 
   804     0017                     	;# 
   805     0018                     	;# 
   806     0019                     	;# 
   807     001A                     	;# 
   808     001B                     	;# 
   809     001B                     	;# 
   810     001C                     	;# 
   811     001D                     	;# 
   812     001E                     	;# 
   813     001F                     	;# 
   814     0081                     	;# 
   815     0085                     	;# 
   816     0086                     	;# 
   817     0087                     	;# 
   818     0088                     	;# 
   819     0089                     	;# 
   820     008C                     	;# 
   821     008D                     	;# 
   822     008E                     	;# 
   823     008F                     	;# 
   824     0090                     	;# 
   825     0091                     	;# 
   826     0092                     	;# 
   827     0093                     	;# 
   828     0093                     	;# 
   829     0093                     	;# 
   830     0094                     	;# 
   831     0095                     	;# 
   832     0096                     	;# 
   833     0097                     	;# 
   834     0098                     	;# 
   835     0099                     	;# 
   836     009A                     	;# 
   837     009B                     	;# 
   838     009C                     	;# 
   839     009D                     	;# 
   840     009E                     	;# 
   841     009F                     	;# 
   842     0105                     	;# 
   843     0107                     	;# 
   844     0108                     	;# 
   845     0109                     	;# 
   846     010C                     	;# 
   847     010C                     	;# 
   848     010D                     	;# 
   849     010E                     	;# 
   850     010F                     	;# 
   851     0185                     	;# 
   852     0187                     	;# 
   853     0188                     	;# 
   854     0189                     	;# 
   855     018C                     	;# 
   856     018D                     	;# 
   857     0000                     	;# 
   858     0001                     	;# 
   859     0002                     	;# 
   860     0003                     	;# 
   861     0004                     	;# 
   862     0005                     	;# 
   863     0006                     	;# 
   864     0007                     	;# 
   865     0008                     	;# 
   866     0009                     	;# 
   867     000A                     	;# 
   868     000B                     	;# 
   869     000C                     	;# 
   870     000D                     	;# 
   871     000E                     	;# 
   872     000E                     	;# 
   873     000F                     	;# 
   874     0010                     	;# 
   875     0011                     	;# 
   876     0012                     	;# 
   877     0013                     	;# 
   878     0014                     	;# 
   879     0015                     	;# 
   880     0015                     	;# 
   881     0016                     	;# 
   882     0017                     	;# 
   883     0018                     	;# 
   884     0019                     	;# 
   885     001A                     	;# 
   886     001B                     	;# 
   887     001B                     	;# 
   888     001C                     	;# 
   889     001D                     	;# 
   890     001E                     	;# 
   891     001F                     	;# 
   892     0081                     	;# 
   893     0085                     	;# 
   894     0086                     	;# 
   895     0087                     	;# 
   896     0088                     	;# 
   897     0089                     	;# 
   898     008C                     	;# 
   899     008D                     	;# 
   900     008E                     	;# 
   901     008F                     	;# 
   902     0090                     	;# 
   903     0091                     	;# 
   904     0092                     	;# 
   905     0093                     	;# 
   906     0093                     	;# 
   907     0093                     	;# 
   908     0094                     	;# 
   909     0095                     	;# 
   910     0096                     	;# 
   911     0097                     	;# 
   912     0098                     	;# 
   913     0099                     	;# 
   914     009A                     	;# 
   915     009B                     	;# 
   916     009C                     	;# 
   917     009D                     	;# 
   918     009E                     	;# 
   919     009F                     	;# 
   920     0105                     	;# 
   921     0107                     	;# 
   922     0108                     	;# 
   923     0109                     	;# 
   924     010C                     	;# 
   925     010C                     	;# 
   926     010D                     	;# 
   927     010E                     	;# 
   928     010F                     	;# 
   929     0185                     	;# 
   930     0187                     	;# 
   931     0188                     	;# 
   932     0189                     	;# 
   933     018C                     	;# 
   934     018D                     	;# 
   935     0000                     	;# 
   936     0001                     	;# 
   937     0002                     	;# 
   938     0003                     	;# 
   939     0004                     	;# 
   940     0005                     	;# 
   941     0006                     	;# 
   942     0007                     	;# 
   943     0008                     	;# 
   944     0009                     	;# 
   945     000A                     	;# 
   946     000B                     	;# 
   947     000C                     	;# 
   948     000D                     	;# 
   949     000E                     	;# 
   950     000E                     	;# 
   951     000F                     	;# 
   952     0010                     	;# 
   953     0011                     	;# 
   954     0012                     	;# 
   955     0013                     	;# 
   956     0014                     	;# 
   957     0015                     	;# 
   958     0015                     	;# 
   959     0016                     	;# 
   960     0017                     	;# 
   961     0018                     	;# 
   962     0019                     	;# 
   963     001A                     	;# 
   964     001B                     	;# 
   965     001B                     	;# 
   966     001C                     	;# 
   967     001D                     	;# 
   968     001E                     	;# 
   969     001F                     	;# 
   970     0081                     	;# 
   971     0085                     	;# 
   972     0086                     	;# 
   973     0087                     	;# 
   974     0088                     	;# 
   975     0089                     	;# 
   976     008C                     	;# 
   977     008D                     	;# 
   978     008E                     	;# 
   979     008F                     	;# 
   980     0090                     	;# 
   981     0091                     	;# 
   982     0092                     	;# 
   983     0093                     	;# 
   984     0093                     	;# 
   985     0093                     	;# 
   986     0094                     	;# 
   987     0095                     	;# 
   988     0096                     	;# 
   989     0097                     	;# 
   990     0098                     	;# 
   991     0099                     	;# 
   992     009A                     	;# 
   993     009B                     	;# 
   994     009C                     	;# 
   995     009D                     	;# 
   996     009E                     	;# 
   997     009F                     	;# 
   998     0105                     	;# 
   999     0107                     	;# 
  1000     0108                     	;# 
  1001     0109                     	;# 
  1002     010C                     	;# 
  1003     010C                     	;# 
  1004     010D                     	;# 
  1005     010E                     	;# 
  1006     010F                     	;# 
  1007     0185                     	;# 
  1008     0187                     	;# 
  1009     0188                     	;# 
  1010     0189                     	;# 
  1011     018C                     	;# 
  1012     018D                     	;# 
  1013     0000                     	;# 
  1014     0001                     	;# 
  1015     0002                     	;# 
  1016     0003                     	;# 
  1017     0004                     	;# 
  1018     0005                     	;# 
  1019     0006                     	;# 
  1020     0007                     	;# 
  1021     0008                     	;# 
  1022     0009                     	;# 
  1023     000A                     	;# 
  1024     000B                     	;# 
  1025     000C                     	;# 
  1026     000D                     	;# 
  1027     000E                     	;# 
  1028     000E                     	;# 
  1029     000F                     	;# 
  1030     0010                     	;# 
  1031     0011                     	;# 
  1032     0012                     	;# 
  1033     0013                     	;# 
  1034     0014                     	;# 
  1035     0015                     	;# 
  1036     0015                     	;# 
  1037     0016                     	;# 
  1038     0017                     	;# 
  1039     0018                     	;# 
  1040     0019                     	;# 
  1041     001A                     	;# 
  1042     001B                     	;# 
  1043     001B                     	;# 
  1044     001C                     	;# 
  1045     001D                     	;# 
  1046     001E                     	;# 
  1047     001F                     	;# 
  1048     0081                     	;# 
  1049     0085                     	;# 
  1050     0086                     	;# 
  1051     0087                     	;# 
  1052     0088                     	;# 
  1053     0089                     	;# 
  1054     008C                     	;# 
  1055     008D                     	;# 
  1056     008E                     	;# 
  1057     008F                     	;# 
  1058     0090                     	;# 
  1059     0091                     	;# 
  1060     0092                     	;# 
  1061     0093                     	;# 
  1062     0093                     	;# 
  1063     0093                     	;# 
  1064     0094                     	;# 
  1065     0095                     	;# 
  1066     0096                     	;# 
  1067     0097                     	;# 
  1068     0098                     	;# 
  1069     0099                     	;# 
  1070     009A                     	;# 
  1071     009B                     	;# 
  1072     009C                     	;# 
  1073     009D                     	;# 
  1074     009E                     	;# 
  1075     009F                     	;# 
  1076     0105                     	;# 
  1077     0107                     	;# 
  1078     0108                     	;# 
  1079     0109                     	;# 
  1080     010C                     	;# 
  1081     010C                     	;# 
  1082     010D                     	;# 
  1083     010E                     	;# 
  1084     010F                     	;# 
  1085     0185                     	;# 
  1086     0187                     	;# 
  1087     0188                     	;# 
  1088     0189                     	;# 
  1089     018C                     	;# 
  1090     018D                     	;# 
  1091     0000                     	;# 
  1092     0001                     	;# 
  1093     0002                     	;# 
  1094     0003                     	;# 
  1095     0004                     	;# 
  1096     0005                     	;# 
  1097     0006                     	;# 
  1098     0007                     	;# 
  1099     0008                     	;# 
  1100     0009                     	;# 
  1101     000A                     	;# 
  1102     000B                     	;# 
  1103     000C                     	;# 
  1104     000D                     	;# 
  1105     000E                     	;# 
  1106     000E                     	;# 
  1107     000F                     	;# 
  1108     0010                     	;# 
  1109     0011                     	;# 
  1110     0012                     	;# 
  1111     0013                     	;# 
  1112     0014                     	;# 
  1113     0015                     	;# 
  1114     0015                     	;# 
  1115     0016                     	;# 
  1116     0017                     	;# 
  1117     0018                     	;# 
  1118     0019                     	;# 
  1119     001A                     	;# 
  1120     001B                     	;# 
  1121     001B                     	;# 
  1122     001C                     	;# 
  1123     001D                     	;# 
  1124     001E                     	;# 
  1125     001F                     	;# 
  1126     0081                     	;# 
  1127     0085                     	;# 
  1128     0086                     	;# 
  1129     0087                     	;# 
  1130     0088                     	;# 
  1131     0089                     	;# 
  1132     008C                     	;# 
  1133     008D                     	;# 
  1134     008E                     	;# 
  1135     008F                     	;# 
  1136     0090                     	;# 
  1137     0091                     	;# 
  1138     0092                     	;# 
  1139     0093                     	;# 
  1140     0093                     	;# 
  1141     0093                     	;# 
  1142     0094                     	;# 
  1143     0095                     	;# 
  1144     0096                     	;# 
  1145     0097                     	;# 
  1146     0098                     	;# 
  1147     0099                     	;# 
  1148     009A                     	;# 
  1149     009B                     	;# 
  1150     009C                     	;# 
  1151     009D                     	;# 
  1152     009E                     	;# 
  1153     009F                     	;# 
  1154     0105                     	;# 
  1155     0107                     	;# 
  1156     0108                     	;# 
  1157     0109                     	;# 
  1158     010C                     	;# 
  1159     010C                     	;# 
  1160     010D                     	;# 
  1161     010E                     	;# 
  1162     010F                     	;# 
  1163     0185                     	;# 
  1164     0187                     	;# 
  1165     0188                     	;# 
  1166     0189                     	;# 
  1167     018C                     	;# 
  1168     018D                     	;# 
  1169     0000                     	;# 
  1170     0001                     	;# 
  1171     0002                     	;# 
  1172     0003                     	;# 
  1173     0004                     	;# 
  1174     0005                     	;# 
  1175     0006                     	;# 
  1176     0007                     	;# 
  1177     0008                     	;# 
  1178     0009                     	;# 
  1179     000A                     	;# 
  1180     000B                     	;# 
  1181     000C                     	;# 
  1182     000D                     	;# 
  1183     000E                     	;# 
  1184     000E                     	;# 
  1185     000F                     	;# 
  1186     0010                     	;# 
  1187     0011                     	;# 
  1188     0012                     	;# 
  1189     0013                     	;# 
  1190     0014                     	;# 
  1191     0015                     	;# 
  1192     0015                     	;# 
  1193     0016                     	;# 
  1194     0017                     	;# 
  1195     0018                     	;# 
  1196     0019                     	;# 
  1197     001A                     	;# 
  1198     001B                     	;# 
  1199     001B                     	;# 
  1200     001C                     	;# 
  1201     001D                     	;# 
  1202     001E                     	;# 
  1203     001F                     	;# 
  1204     0081                     	;# 
  1205     0085                     	;# 
  1206     0086                     	;# 
  1207     0087                     	;# 
  1208     0088                     	;# 
  1209     0089                     	;# 
  1210     008C                     	;# 
  1211     008D                     	;# 
  1212     008E                     	;# 
  1213     008F                     	;# 
  1214     0090                     	;# 
  1215     0091                     	;# 
  1216     0092                     	;# 
  1217     0093                     	;# 
  1218     0093                     	;# 
  1219     0093                     	;# 
  1220     0094                     	;# 
  1221     0095                     	;# 
  1222     0096                     	;# 
  1223     0097                     	;# 
  1224     0098                     	;# 
  1225     0099                     	;# 
  1226     009A                     	;# 
  1227     009B                     	;# 
  1228     009C                     	;# 
  1229     009D                     	;# 
  1230     009E                     	;# 
  1231     009F                     	;# 
  1232     0105                     	;# 
  1233     0107                     	;# 
  1234     0108                     	;# 
  1235     0109                     	;# 
  1236     010C                     	;# 
  1237     010C                     	;# 
  1238     010D                     	;# 
  1239     010E                     	;# 
  1240     010F                     	;# 
  1241     0185                     	;# 
  1242     0187                     	;# 
  1243     0188                     	;# 
  1244     0189                     	;# 
  1245     018C                     	;# 
  1246     018D                     	;# 
  1247     0000                     	;# 
  1248     0001                     	;# 
  1249     0002                     	;# 
  1250     0003                     	;# 
  1251     0004                     	;# 
  1252     0005                     	;# 
  1253     0006                     	;# 
  1254     0007                     	;# 
  1255     0008                     	;# 
  1256     0009                     	;# 
  1257     000A                     	;# 
  1258     000B                     	;# 
  1259     000C                     	;# 
  1260     000D                     	;# 
  1261     000E                     	;# 
  1262     000E                     	;# 
  1263     000F                     	;# 
  1264     0010                     	;# 
  1265     0011                     	;# 
  1266     0012                     	;# 
  1267     0013                     	;# 
  1268     0014                     	;# 
  1269     0015                     	;# 
  1270     0015                     	;# 
  1271     0016                     	;# 
  1272     0017                     	;# 
  1273     0018                     	;# 
  1274     0019                     	;# 
  1275     001A                     	;# 
  1276     001B                     	;# 
  1277     001B                     	;# 
  1278     001C                     	;# 
  1279     001D                     	;# 
  1280     001E                     	;# 
  1281     001F                     	;# 
  1282     0081                     	;# 
  1283     0085                     	;# 
  1284     0086                     	;# 
  1285     0087                     	;# 
  1286     0088                     	;# 
  1287     0089                     	;# 
  1288     008C                     	;# 
  1289     008D                     	;# 
  1290     008E                     	;# 
  1291     008F                     	;# 
  1292     0090                     	;# 
  1293     0091                     	;# 
  1294     0092                     	;# 
  1295     0093                     	;# 
  1296     0093                     	;# 
  1297     0093                     	;# 
  1298     0094                     	;# 
  1299     0095                     	;# 
  1300     0096                     	;# 
  1301     0097                     	;# 
  1302     0098                     	;# 
  1303     0099                     	;# 
  1304     009A                     	;# 
  1305     009B                     	;# 
  1306     009C                     	;# 
  1307     009D                     	;# 
  1308     009E                     	;# 
  1309     009F                     	;# 
  1310     0105                     	;# 
  1311     0107                     	;# 
  1312     0108                     	;# 
  1313     0109                     	;# 
  1314     010C                     	;# 
  1315     010C                     	;# 
  1316     010D                     	;# 
  1317     010E                     	;# 
  1318     010F                     	;# 
  1319     0185                     	;# 
  1320     0187                     	;# 
  1321     0188                     	;# 
  1322     0189                     	;# 
  1323     018C                     	;# 
  1324     018D                     	;# 
  1325     0000                     	;# 
  1326     0001                     	;# 
  1327     0002                     	;# 
  1328     0003                     	;# 
  1329     0004                     	;# 
  1330     0005                     	;# 
  1331     0006                     	;# 
  1332     0007                     	;# 
  1333     0008                     	;# 
  1334     0009                     	;# 
  1335     000A                     	;# 
  1336     000B                     	;# 
  1337     000C                     	;# 
  1338     000D                     	;# 
  1339     000E                     	;# 
  1340     000E                     	;# 
  1341     000F                     	;# 
  1342     0010                     	;# 
  1343     0011                     	;# 
  1344     0012                     	;# 
  1345     0013                     	;# 
  1346     0014                     	;# 
  1347     0015                     	;# 
  1348     0015                     	;# 
  1349     0016                     	;# 
  1350     0017                     	;# 
  1351     0018                     	;# 
  1352     0019                     	;# 
  1353     001A                     	;# 
  1354     001B                     	;# 
  1355     001B                     	;# 
  1356     001C                     	;# 
  1357     001D                     	;# 
  1358     001E                     	;# 
  1359     001F                     	;# 
  1360     0081                     	;# 
  1361     0085                     	;# 
  1362     0086                     	;# 
  1363     0087                     	;# 
  1364     0088                     	;# 
  1365     0089                     	;# 
  1366     008C                     	;# 
  1367     008D                     	;# 
  1368     008E                     	;# 
  1369     008F                     	;# 
  1370     0090                     	;# 
  1371     0091                     	;# 
  1372     0092                     	;# 
  1373     0093                     	;# 
  1374     0093                     	;# 
  1375     0093                     	;# 
  1376     0094                     	;# 
  1377     0095                     	;# 
  1378     0096                     	;# 
  1379     0097                     	;# 
  1380     0098                     	;# 
  1381     0099                     	;# 
  1382     009A                     	;# 
  1383     009B                     	;# 
  1384     009C                     	;# 
  1385     009D                     	;# 
  1386     009E                     	;# 
  1387     009F                     	;# 
  1388     0105                     	;# 
  1389     0107                     	;# 
  1390     0108                     	;# 
  1391     0109                     	;# 
  1392     010C                     	;# 
  1393     010C                     	;# 
  1394     010D                     	;# 
  1395     010E                     	;# 
  1396     010F                     	;# 
  1397     0185                     	;# 
  1398     0187                     	;# 
  1399     0188                     	;# 
  1400     0189                     	;# 
  1401     018C                     	;# 
  1402     018D                     	;# 
  1403     0000                     	;# 
  1404     0001                     	;# 
  1405     0002                     	;# 
  1406     0003                     	;# 
  1407     0004                     	;# 
  1408     0005                     	;# 
  1409     0006                     	;# 
  1410     0007                     	;# 
  1411     0008                     	;# 
  1412     0009                     	;# 
  1413     000A                     	;# 
  1414     000B                     	;# 
  1415     000C                     	;# 
  1416     000D                     	;# 
  1417     000E                     	;# 
  1418     000E                     	;# 
  1419     000F                     	;# 
  1420     0010                     	;# 
  1421     0011                     	;# 
  1422     0012                     	;# 
  1423     0013                     	;# 
  1424     0014                     	;# 
  1425     0015                     	;# 
  1426     0015                     	;# 
  1427     0016                     	;# 
  1428     0017                     	;# 
  1429     0018                     	;# 
  1430     0019                     	;# 
  1431     001A                     	;# 
  1432     001B                     	;# 
  1433     001B                     	;# 
  1434     001C                     	;# 
  1435     001D                     	;# 
  1436     001E                     	;# 
  1437     001F                     	;# 
  1438     0081                     	;# 
  1439     0085                     	;# 
  1440     0086                     	;# 
  1441     0087                     	;# 
  1442     0088                     	;# 
  1443     0089                     	;# 
  1444     008C                     	;# 
  1445     008D                     	;# 
  1446     008E                     	;# 
  1447     008F                     	;# 
  1448     0090                     	;# 
  1449     0091                     	;# 
  1450     0092                     	;# 
  1451     0093                     	;# 
  1452     0093                     	;# 
  1453     0093                     	;# 
  1454     0094                     	;# 
  1455     0095                     	;# 
  1456     0096                     	;# 
  1457     0097                     	;# 
  1458     0098                     	;# 
  1459     0099                     	;# 
  1460     009A                     	;# 
  1461     009B                     	;# 
  1462     009C                     	;# 
  1463     009D                     	;# 
  1464     009E                     	;# 
  1465     009F                     	;# 
  1466     0105                     	;# 
  1467     0107                     	;# 
  1468     0108                     	;# 
  1469     0109                     	;# 
  1470     010C                     	;# 
  1471     010C                     	;# 
  1472     010D                     	;# 
  1473     010E                     	;# 
  1474     010F                     	;# 
  1475     0185                     	;# 
  1476     0187                     	;# 
  1477     0188                     	;# 
  1478     0189                     	;# 
  1479     018C                     	;# 
  1480     018D                     	;# 
  1481     0000                     	;# 
  1482     0001                     	;# 
  1483     0002                     	;# 
  1484     0003                     	;# 
  1485     0004                     	;# 
  1486     0005                     	;# 
  1487     0006                     	;# 
  1488     0007                     	;# 
  1489     0008                     	;# 
  1490     0009                     	;# 
  1491     000A                     	;# 
  1492     000B                     	;# 
  1493     000C                     	;# 
  1494     000D                     	;# 
  1495     000E                     	;# 
  1496     000E                     	;# 
  1497     000F                     	;# 
  1498     0010                     	;# 
  1499     0011                     	;# 
  1500     0012                     	;# 
  1501     0013                     	;# 
  1502     0014                     	;# 
  1503     0015                     	;# 
  1504     0015                     	;# 
  1505     0016                     	;# 
  1506     0017                     	;# 
  1507     0018                     	;# 
  1508     0019                     	;# 
  1509     001A                     	;# 
  1510     001B                     	;# 
  1511     001B                     	;# 
  1512     001C                     	;# 
  1513     001D                     	;# 
  1514     001E                     	;# 
  1515     001F                     	;# 
  1516     0081                     	;# 
  1517     0085                     	;# 
  1518     0086                     	;# 
  1519     0087                     	;# 
  1520     0088                     	;# 
  1521     0089                     	;# 
  1522     008C                     	;# 
  1523     008D                     	;# 
  1524     008E                     	;# 
  1525     008F                     	;# 
  1526     0090                     	;# 
  1527     0091                     	;# 
  1528     0092                     	;# 
  1529     0093                     	;# 
  1530     0093                     	;# 
  1531     0093                     	;# 
  1532     0094                     	;# 
  1533     0095                     	;# 
  1534     0096                     	;# 
  1535     0097                     	;# 
  1536     0098                     	;# 
  1537     0099                     	;# 
  1538     009A                     	;# 
  1539     009B                     	;# 
  1540     009C                     	;# 
  1541     009D                     	;# 
  1542     009E                     	;# 
  1543     009F                     	;# 
  1544     0105                     	;# 
  1545     0107                     	;# 
  1546     0108                     	;# 
  1547     0109                     	;# 
  1548     010C                     	;# 
  1549     010C                     	;# 
  1550     010D                     	;# 
  1551     010E                     	;# 
  1552     010F                     	;# 
  1553     0185                     	;# 
  1554     0187                     	;# 
  1555     0188                     	;# 
  1556     0189                     	;# 
  1557     018C                     	;# 
  1558     018D                     	;# 
  1559     0000                     	;# 
  1560     0001                     	;# 
  1561     0002                     	;# 
  1562     0003                     	;# 
  1563     0004                     	;# 
  1564     0005                     	;# 
  1565     0006                     	;# 
  1566     0007                     	;# 
  1567     0008                     	;# 
  1568     0009                     	;# 
  1569     000A                     	;# 
  1570     000B                     	;# 
  1571     000C                     	;# 
  1572     000D                     	;# 
  1573     000E                     	;# 
  1574     000E                     	;# 
  1575     000F                     	;# 
  1576     0010                     	;# 
  1577     0011                     	;# 
  1578     0012                     	;# 
  1579     0013                     	;# 
  1580     0014                     	;# 
  1581     0015                     	;# 
  1582     0015                     	;# 
  1583     0016                     	;# 
  1584     0017                     	;# 
  1585     0018                     	;# 
  1586     0019                     	;# 
  1587     001A                     	;# 
  1588     001B                     	;# 
  1589     001B                     	;# 
  1590     001C                     	;# 
  1591     001D                     	;# 
  1592     001E                     	;# 
  1593     001F                     	;# 
  1594     0081                     	;# 
  1595     0085                     	;# 
  1596     0086                     	;# 
  1597     0087                     	;# 
  1598     0088                     	;# 
  1599     0089                     	;# 
  1600     008C                     	;# 
  1601     008D                     	;# 
  1602     008E                     	;# 
  1603     008F                     	;# 
  1604     0090                     	;# 
  1605     0091                     	;# 
  1606     0092                     	;# 
  1607     0093                     	;# 
  1608     0093                     	;# 
  1609     0093                     	;# 
  1610     0094                     	;# 
  1611     0095                     	;# 
  1612     0096                     	;# 
  1613     0097                     	;# 
  1614     0098                     	;# 
  1615     0099                     	;# 
  1616     009A                     	;# 
  1617     009B                     	;# 
  1618     009C                     	;# 
  1619     009D                     	;# 
  1620     009E                     	;# 
  1621     009F                     	;# 
  1622     0105                     	;# 
  1623     0107                     	;# 
  1624     0108                     	;# 
  1625     0109                     	;# 
  1626     010C                     	;# 
  1627     010C                     	;# 
  1628     010D                     	;# 
  1629     010E                     	;# 
  1630     010F                     	;# 
  1631     0185                     	;# 
  1632     0187                     	;# 
  1633     0188                     	;# 
  1634     0189                     	;# 
  1635     018C                     	;# 
  1636     018D                     	;# 
  1637     0000                     	;# 
  1638     0001                     	;# 
  1639     0002                     	;# 
  1640     0003                     	;# 
  1641     0004                     	;# 
  1642     0005                     	;# 
  1643     0006                     	;# 
  1644     0007                     	;# 
  1645     0008                     	;# 
  1646     0009                     	;# 
  1647     000A                     	;# 
  1648     000B                     	;# 
  1649     000C                     	;# 
  1650     000D                     	;# 
  1651     000E                     	;# 
  1652     000E                     	;# 
  1653     000F                     	;# 
  1654     0010                     	;# 
  1655     0011                     	;# 
  1656     0012                     	;# 
  1657     0013                     	;# 
  1658     0014                     	;# 
  1659     0015                     	;# 
  1660     0015                     	;# 
  1661     0016                     	;# 
  1662     0017                     	;# 
  1663     0018                     	;# 
  1664     0019                     	;# 
  1665     001A                     	;# 
  1666     001B                     	;# 
  1667     001B                     	;# 
  1668     001C                     	;# 
  1669     001D                     	;# 
  1670     001E                     	;# 
  1671     001F                     	;# 
  1672     0081                     	;# 
  1673     0085                     	;# 
  1674     0086                     	;# 
  1675     0087                     	;# 
  1676     0088                     	;# 
  1677     0089                     	;# 
  1678     008C                     	;# 
  1679     008D                     	;# 
  1680     008E                     	;# 
  1681     008F                     	;# 
  1682     0090                     	;# 
  1683     0091                     	;# 
  1684     0092                     	;# 
  1685     0093                     	;# 
  1686     0093                     	;# 
  1687     0093                     	;# 
  1688     0094                     	;# 
  1689     0095                     	;# 
  1690     0096                     	;# 
  1691     0097                     	;# 
  1692     0098                     	;# 
  1693     0099                     	;# 
  1694     009A                     	;# 
  1695     009B                     	;# 
  1696     009C                     	;# 
  1697     009D                     	;# 
  1698     009E                     	;# 
  1699     009F                     	;# 
  1700     0105                     	;# 
  1701     0107                     	;# 
  1702     0108                     	;# 
  1703     0109                     	;# 
  1704     010C                     	;# 
  1705     010C                     	;# 
  1706     010D                     	;# 
  1707     010E                     	;# 
  1708     010F                     	;# 
  1709     0185                     	;# 
  1710     0187                     	;# 
  1711     0188                     	;# 
  1712     0189                     	;# 
  1713     018C                     	;# 
  1714     018D                     	;# 
  1715     0000                     	;# 
  1716     0001                     	;# 
  1717     0002                     	;# 
  1718     0003                     	;# 
  1719     0004                     	;# 
  1720     0005                     	;# 
  1721     0006                     	;# 
  1722     0007                     	;# 
  1723     0008                     	;# 
  1724     0009                     	;# 
  1725     000A                     	;# 
  1726     000B                     	;# 
  1727     000C                     	;# 
  1728     000D                     	;# 
  1729     000E                     	;# 
  1730     000E                     	;# 
  1731     000F                     	;# 
  1732     0010                     	;# 
  1733     0011                     	;# 
  1734     0012                     	;# 
  1735     0013                     	;# 
  1736     0014                     	;# 
  1737     0015                     	;# 
  1738     0015                     	;# 
  1739     0016                     	;# 
  1740     0017                     	;# 
  1741     0018                     	;# 
  1742     0019                     	;# 
  1743     001A                     	;# 
  1744     001B                     	;# 
  1745     001B                     	;# 
  1746     001C                     	;# 
  1747     001D                     	;# 
  1748     001E                     	;# 
  1749     001F                     	;# 
  1750     0081                     	;# 
  1751     0085                     	;# 
  1752     0086                     	;# 
  1753     0087                     	;# 
  1754     0088                     	;# 
  1755     0089                     	;# 
  1756     008C                     	;# 
  1757     008D                     	;# 
  1758     008E                     	;# 
  1759     008F                     	;# 
  1760     0090                     	;# 
  1761     0091                     	;# 
  1762     0092                     	;# 
  1763     0093                     	;# 
  1764     0093                     	;# 
  1765     0093                     	;# 
  1766     0094                     	;# 
  1767     0095                     	;# 
  1768     0096                     	;# 
  1769     0097                     	;# 
  1770     0098                     	;# 
  1771     0099                     	;# 
  1772     009A                     	;# 
  1773     009B                     	;# 
  1774     009C                     	;# 
  1775     009D                     	;# 
  1776     009E                     	;# 
  1777     009F                     	;# 
  1778     0105                     	;# 
  1779     0107                     	;# 
  1780     0108                     	;# 
  1781     0109                     	;# 
  1782     010C                     	;# 
  1783     010C                     	;# 
  1784     010D                     	;# 
  1785     010E                     	;# 
  1786     010F                     	;# 
  1787     0185                     	;# 
  1788     0187                     	;# 
  1789     0188                     	;# 
  1790     0189                     	;# 
  1791     018C                     	;# 
  1792     018D                     	;# 
  1793     0000                     	;# 
  1794     0001                     	;# 
  1795     0002                     	;# 
  1796     0003                     	;# 
  1797     0004                     	;# 
  1798     0005                     	;# 
  1799     0006                     	;# 
  1800     0007                     	;# 
  1801     0008                     	;# 
  1802     0009                     	;# 
  1803     000A                     	;# 
  1804     000B                     	;# 
  1805     000C                     	;# 
  1806     000D                     	;# 
  1807     000E                     	;# 
  1808     000E                     	;# 
  1809     000F                     	;# 
  1810     0010                     	;# 
  1811     0011                     	;# 
  1812     0012                     	;# 
  1813     0013                     	;# 
  1814     0014                     	;# 
  1815     0015                     	;# 
  1816     0015                     	;# 
  1817     0016                     	;# 
  1818     0017                     	;# 
  1819     0018                     	;# 
  1820     0019                     	;# 
  1821     001A                     	;# 
  1822     001B                     	;# 
  1823     001B                     	;# 
  1824     001C                     	;# 
  1825     001D                     	;# 
  1826     001E                     	;# 
  1827     001F                     	;# 
  1828     0081                     	;# 
  1829     0085                     	;# 
  1830     0086                     	;# 
  1831     0087                     	;# 
  1832     0088                     	;# 
  1833     0089                     	;# 
  1834     008C                     	;# 
  1835     008D                     	;# 
  1836     008E                     	;# 
  1837     008F                     	;# 
  1838     0090                     	;# 
  1839     0091                     	;# 
  1840     0092                     	;# 
  1841     0093                     	;# 
  1842     0093                     	;# 
  1843     0093                     	;# 
  1844     0094                     	;# 
  1845     0095                     	;# 
  1846     0096                     	;# 
  1847     0097                     	;# 
  1848     0098                     	;# 
  1849     0099                     	;# 
  1850     009A                     	;# 
  1851     009B                     	;# 
  1852     009C                     	;# 
  1853     009D                     	;# 
  1854     009E                     	;# 
  1855     009F                     	;# 
  1856     0105                     	;# 
  1857     0107                     	;# 
  1858     0108                     	;# 
  1859     0109                     	;# 
  1860     010C                     	;# 
  1861     010C                     	;# 
  1862     010D                     	;# 
  1863     010E                     	;# 
  1864     010F                     	;# 
  1865     0185                     	;# 
  1866     0187                     	;# 
  1867     0188                     	;# 
  1868     0189                     	;# 
  1869     018C                     	;# 
  1870     018D                     	;# 
  1871     0000                     	;# 
  1872     0001                     	;# 
  1873     0002                     	;# 
  1874     0003                     	;# 
  1875     0004                     	;# 
  1876     0005                     	;# 
  1877     0006                     	;# 
  1878     0007                     	;# 
  1879     0008                     	;# 
  1880     0009                     	;# 
  1881     000A                     	;# 
  1882     000B                     	;# 
  1883     000C                     	;# 
  1884     000D                     	;# 
  1885     000E                     	;# 
  1886     000E                     	;# 
  1887     000F                     	;# 
  1888     0010                     	;# 
  1889     0011                     	;# 
  1890     0012                     	;# 
  1891     0013                     	;# 
  1892     0014                     	;# 
  1893     0015                     	;# 
  1894     0015                     	;# 
  1895     0016                     	;# 
  1896     0017                     	;# 
  1897     0018                     	;# 
  1898     0019                     	;# 
  1899     001A                     	;# 
  1900     001B                     	;# 
  1901     001B                     	;# 
  1902     001C                     	;# 
  1903     001D                     	;# 
  1904     001E                     	;# 
  1905     001F                     	;# 
  1906     0081                     	;# 
  1907     0085                     	;# 
  1908     0086                     	;# 
  1909     0087                     	;# 
  1910     0088                     	;# 
  1911     0089                     	;# 
  1912     008C                     	;# 
  1913     008D                     	;# 
  1914     008E                     	;# 
  1915     008F                     	;# 
  1916     0090                     	;# 
  1917     0091                     	;# 
  1918     0092                     	;# 
  1919     0093                     	;# 
  1920     0093                     	;# 
  1921     0093                     	;# 
  1922     0094                     	;# 
  1923     0095                     	;# 
  1924     0096                     	;# 
  1925     0097                     	;# 
  1926     0098                     	;# 
  1927     0099                     	;# 
  1928     009A                     	;# 
  1929     009B                     	;# 
  1930     009C                     	;# 
  1931     009D                     	;# 
  1932     009E                     	;# 
  1933     009F                     	;# 
  1934     0105                     	;# 
  1935     0107                     	;# 
  1936     0108                     	;# 
  1937     0109                     	;# 
  1938     010C                     	;# 
  1939     010C                     	;# 
  1940     010D                     	;# 
  1941     010E                     	;# 
  1942     010F                     	;# 
  1943     0185                     	;# 
  1944     0187                     	;# 
  1945     0188                     	;# 
  1946     0189                     	;# 
  1947     018C                     	;# 
  1948     018D                     	;# 
  1949     0000                     	;# 
  1950     0001                     	;# 
  1951     0002                     	;# 
  1952     0003                     	;# 
  1953     0004                     	;# 
  1954     0005                     	;# 
  1955     0006                     	;# 
  1956     0007                     	;# 
  1957     0008                     	;# 
  1958     0009                     	;# 
  1959     000A                     	;# 
  1960     000B                     	;# 
  1961     000C                     	;# 
  1962     000D                     	;# 
  1963     000E                     	;# 
  1964     000E                     	;# 
  1965     000F                     	;# 
  1966     0010                     	;# 
  1967     0011                     	;# 
  1968     0012                     	;# 
  1969     0013                     	;# 
  1970     0014                     	;# 
  1971     0015                     	;# 
  1972     0015                     	;# 
  1973     0016                     	;# 
  1974     0017                     	;# 
  1975     0018                     	;# 
  1976     0019                     	;# 
  1977     001A                     	;# 
  1978     001B                     	;# 
  1979     001B                     	;# 
  1980     001C                     	;# 
  1981     001D                     	;# 
  1982     001E                     	;# 
  1983     001F                     	;# 
  1984     0081                     	;# 
  1985     0085                     	;# 
  1986     0086                     	;# 
  1987     0087                     	;# 
  1988     0088                     	;# 
  1989     0089                     	;# 
  1990     008C                     	;# 
  1991     008D                     	;# 
  1992     008E                     	;# 
  1993     008F                     	;# 
  1994     0090                     	;# 
  1995     0091                     	;# 
  1996     0092                     	;# 
  1997     0093                     	;# 
  1998     0093                     	;# 
  1999     0093                     	;# 
  2000     0094                     	;# 
  2001     0095                     	;# 
  2002     0096                     	;# 
  2003     0097                     	;# 
  2004     0098                     	;# 
  2005     0099                     	;# 
  2006     009A                     	;# 
  2007     009B                     	;# 
  2008     009C                     	;# 
  2009     009D                     	;# 
  2010     009E                     	;# 
  2011     009F                     	;# 
  2012     0105                     	;# 
  2013     0107                     	;# 
  2014     0108                     	;# 
  2015     0109                     	;# 
  2016     010C                     	;# 
  2017     010C                     	;# 
  2018     010D                     	;# 
  2019     010E                     	;# 
  2020     010F                     	;# 
  2021     0185                     	;# 
  2022     0187                     	;# 
  2023     0188                     	;# 
  2024     0189                     	;# 
  2025     018C                     	;# 
  2026     018D                     	;# 
  2027                           
  2028                           	psect	idataCOMMON
  2029     00A5                     __pidataCOMMON:
  2030                           
  2031                           ;initializer for _mode
  2032     00A5  3442               	retlw	66
  2033                           
  2034                           ;initializer for _LCD_display_control
  2035     00A6  340C               	retlw	12
  2036                           
  2037                           ;initializer for _LCD_entry_mode
  2038     00A7  3406               	retlw	6
  2039                           
  2040                           	psect	idataBANK1
  2041     0255                     __pidataBANK1:
  2042                           
  2043                           ;initializer for _PassWord
  2044     0255  345F               	retlw	95
  2045     0256  3400               	retlw	0
  2046     0257  3400               	retlw	0
  2047     0258  3400               	retlw	0
  2048     0259  3400               	retlw	0
  2049     025A  3400               	retlw	0
  2050     025B  3400               	retlw	0
  2051     025C  3400               	retlw	0
  2052     025D  3400               	retlw	0
  2053     025E  3400               	retlw	0
  2054     025F  3400               	retlw	0
  2055     0260  3400               	retlw	0
  2056     0261  3400               	retlw	0
  2057     0262  3400               	retlw	0
  2058     0263  3400               	retlw	0
  2059     0264  3400               	retlw	0
  2060     0265  3400               	retlw	0
  2061     0266  3400               	retlw	0
  2062     0267  3400               	retlw	0
  2063     0268  3400               	retlw	0
  2064     0269  3400               	retlw	0
  2065     026A  3400               	retlw	0
  2066     026B  3400               	retlw	0
  2067     026C  3400               	retlw	0
  2068     026D  3400               	retlw	0
  2069     026E  3400               	retlw	0
  2070     026F  3400               	retlw	0
  2071     0270  3400               	retlw	0
  2072     0271  3400               	retlw	0
  2073     0272  3400               	retlw	0
  2074                           
  2075                           ;initializer for _WifiName
  2076     0273  345F               	retlw	95
  2077     0274  3400               	retlw	0
  2078     0275  3400               	retlw	0
  2079     0276  3400               	retlw	0
  2080     0277  3400               	retlw	0
  2081     0278  3400               	retlw	0
  2082     0279  3400               	retlw	0
  2083     027A  3400               	retlw	0
  2084     027B  3400               	retlw	0
  2085     027C  3400               	retlw	0
  2086     027D  3400               	retlw	0
  2087     027E  3400               	retlw	0
  2088     027F  3400               	retlw	0
  2089     0280  3400               	retlw	0
  2090     0281  3400               	retlw	0
  2091     0282  3400               	retlw	0
  2092     0283  3400               	retlw	0
  2093     0284  3400               	retlw	0
  2094     0285  3400               	retlw	0
  2095     0286  3400               	retlw	0
  2096     0287  3400               	retlw	0
  2097     0288  3400               	retlw	0
  2098     0289  3400               	retlw	0
  2099     028A  3400               	retlw	0
  2100     028B  3400               	retlw	0
  2101     028C  3400               	retlw	0
  2102     028D  3400               	retlw	0
  2103     028E  3400               	retlw	0
  2104     028F  3400               	retlw	0
  2105     0290  3400               	retlw	0
  2106     0006                     _PORTB	set	6
  2107     0019                     _TXREG	set	25
  2108     0018                     _RCSTAbits	set	24
  2109     001A                     _RCREG	set	26
  2110     000C                     _PIR1bits	set	12
  2111     0008                     _PORTDbits	set	8
  2112     0037                     _RB7	set	55
  2113     0036                     _RB6	set	54
  2114     0035                     _RB5	set	53
  2115     0034                     _RB4	set	52
  2116     0033                     _RB3	set	51
  2117     0032                     _RB2	set	50
  2118     0031                     _RB1	set	49
  2119     0030                     _RB0	set	48
  2120     00C4                     _CREN	set	196
  2121     00C1                     _OERR	set	193
  2122     0064                     _TXIF	set	100
  2123     005F                     _GIE	set	95
  2124     005E                     _PEIE	set	94
  2125     0065                     _RCIF	set	101
  2126     0081                     _OPTION_REG	set	129
  2127     0086                     _TRISB	set	134
  2128     008C                     _PIE1bits	set	140
  2129     0099                     _SPBRG	set	153
  2130     0098                     _TXSTAbits	set	152
  2131     0088                     _TRISDbits	set	136
  2132     043F                     _TRISC7	set	1087
  2133     043E                     _TRISC6	set	1086
  2134                           
  2135                           	psect	strings
  2136     0013                     __pstrings:
  2137     0013                     stringtab:
  2138     0013                     __stringtab:
  2139                           
  2140                           ;	String table - string pointers are 1 byte each
  2141     0013  1BFF               	btfsc	btemp+1,7
  2142     0014  281D               	ljmp	stringcode
  2143     0015  1383               	bcf	3,7
  2144     0016  187F               	btfsc	btemp+1,0
  2145     0017  1783               	bsf	3,7
  2146     0018  0800               	movf	0,w
  2147     0019  0A84               	incf	4,f
  2148     001A  1903               	skipnz
  2149     001B  0AFF               	incf	btemp+1,f
  2150     001C  0008               	return
  2151     001D                     stringcode:
  2152     001D                     stringdir:
  2153     001D  3000               	movlw	high stringdir
  2154     001E  008A               	movwf	10
  2155     001F  0804               	movf	4,w
  2156     0020  0A84               	incf	4,f
  2157     0021  0782               	addwf	2,f
  2158     0022                     __stringbase:
  2159     0022  3400               	retlw	0
  2160     0023                     __end_of__stringtab:
  2161     0023                     STR_6:
  2162     0023  3457               	retlw	87	;'W'
  2163     0024  3461               	retlw	97	;'a'
  2164     0025  3469               	retlw	105	;'i'
  2165     0026  3474               	retlw	116	;'t'
  2166     0027  3469               	retlw	105	;'i'
  2167     0028  346E               	retlw	110	;'n'
  2168     0029  3467               	retlw	103	;'g'
  2169     002A  3420               	retlw	32	;' '
  2170     002B  3474               	retlw	116	;'t'
  2171     002C  346F               	retlw	111	;'o'
  2172     002D  3420               	retlw	32	;' '
  2173     002E  3452               	retlw	82	;'R'
  2174     002F  3465               	retlw	101	;'e'
  2175     0030  3473               	retlw	115	;'s'
  2176     0031  3470               	retlw	112	;'p'
  2177     0032  346F               	retlw	111	;'o'
  2178     0033  346E               	retlw	110	;'n'
  2179     0034  3473               	retlw	115	;'s'
  2180     0035  3465               	retlw	101	;'e'
  2181     0036  3400               	retlw	0
  2182     0037                     STR_9:
  2183     0037  3445               	retlw	69	;'E'
  2184     0038  3453               	retlw	83	;'S'
  2185     0039  3450               	retlw	80	;'P'
  2186     003A  3420               	retlw	32	;' '
  2187     003B  3438               	retlw	56	;'8'
  2188     003C  3432               	retlw	50	;'2'
  2189     003D  3436               	retlw	54	;'6'
  2190     003E  3436               	retlw	54	;'6'
  2191     003F  3420               	retlw	32	;' '
  2192     0040  3443               	retlw	67	;'C'
  2193     0041  346F               	retlw	111	;'o'
  2194     0042  346E               	retlw	110	;'n'
  2195     0043  346E               	retlw	110	;'n'
  2196     0044  3465               	retlw	101	;'e'
  2197     0045  3463               	retlw	99	;'c'
  2198     0046  3474               	retlw	116	;'t'
  2199     0047  3465               	retlw	101	;'e'
  2200     0048  3464               	retlw	100	;'d'
  2201     0049  3400               	retlw	0
  2202     004A                     STR_3:
  2203     004A  3455               	retlw	85	;'U'
  2204     004B  3441               	retlw	65	;'A'
  2205     004C  3452               	retlw	82	;'R'
  2206     004D  3454               	retlw	84	;'T'
  2207     004E  3420               	retlw	32	;' '
  2208     004F  3449               	retlw	73	;'I'
  2209     0050  346E               	retlw	110	;'n'
  2210     0051  3469               	retlw	105	;'i'
  2211     0052  3474               	retlw	116	;'t'
  2212     0053  3420               	retlw	32	;' '
  2213     0054  3453               	retlw	83	;'S'
  2214     0055  3475               	retlw	117	;'u'
  2215     0056  3463               	retlw	99	;'c'
  2216     0057  3463               	retlw	99	;'c'
  2217     0058  3465               	retlw	101	;'e'
  2218     0059  3473               	retlw	115	;'s'
  2219     005A  3473               	retlw	115	;'s'
  2220     005B  3400               	retlw	0
  2221     005C                     STR_2:
  2222     005C  3449               	retlw	73	;'I'
  2223     005D  346E               	retlw	110	;'n'
  2224     005E  3469               	retlw	105	;'i'
  2225     005F  3474               	retlw	116	;'t'
  2226     0060  344B               	retlw	75	;'K'
  2227     0061  3465               	retlw	101	;'e'
  2228     0062  3479               	retlw	121	;'y'
  2229     0063  3450               	retlw	80	;'P'
  2230     0064  3461               	retlw	97	;'a'
  2231     0065  3464               	retlw	100	;'d'
  2232     0066  3428               	retlw	40	;'('
  2233     0067  3429               	retlw	41	;')'
  2234     0068  3400               	retlw	0
  2235     0069                     STR_8:
  2236     0069  3452               	retlw	82	;'R'
  2237     006A  3465               	retlw	101	;'e'
  2238     006B  3463               	retlw	99	;'c'
  2239     006C  3465               	retlw	101	;'e'
  2240     006D  3469               	retlw	105	;'i'
  2241     006E  3476               	retlw	118	;'v'
  2242     006F  3465               	retlw	101	;'e'
  2243     0070  3464               	retlw	100	;'d'
  2244     0071  3420               	retlw	32	;' '
  2245     0072  344F               	retlw	79	;'O'
  2246     0073  344B               	retlw	75	;'K'
  2247     0074  3400               	retlw	0
  2248     0075                     STR_1:
  2249     0075  344C               	retlw	76	;'L'
  2250     0076  3443               	retlw	67	;'C'
  2251     0077  3444               	retlw	68	;'D'
  2252     0078  345F               	retlw	95	;'_'
  2253     0079  3469               	retlw	105	;'i'
  2254     007A  346E               	retlw	110	;'n'
  2255     007B  3469               	retlw	105	;'i'
  2256     007C  3474               	retlw	116	;'t'
  2257     007D  3428               	retlw	40	;'('
  2258     007E  3429               	retlw	41	;')'
  2259     007F  3400               	retlw	0
  2260     0080                     STR_11:
  2261     0080  3445               	retlw	69	;'E'
  2262     0081  346E               	retlw	110	;'n'
  2263     0082  3474               	retlw	116	;'t'
  2264     0083  3465               	retlw	101	;'e'
  2265     0084  3472               	retlw	114	;'r'
  2266     0085  3420               	retlw	32	;' '
  2267     0086  344B               	retlw	75	;'K'
  2268     0087  3465               	retlw	101	;'e'
  2269     0088  3479               	retlw	121	;'y'
  2270     0089  3400               	retlw	0
  2271     008A                     STR_5:
  2272     008A  3441               	retlw	65	;'A'
  2273     008B  3454               	retlw	84	;'T'
  2274     008C  3420               	retlw	32	;' '
  2275     008D  3453               	retlw	83	;'S'
  2276     008E  3465               	retlw	101	;'e'
  2277     008F  346E               	retlw	110	;'n'
  2278     0090  3474               	retlw	116	;'t'
  2279     0091  3400               	retlw	0
  2280     0092                     STR_12:
  2281     0092  340D               	retlw	13
  2282     0093  340A               	retlw	10
  2283     0094  3400               	retlw	0
  2284     0095                     STR_4:
  2285     0095  3441               	retlw	65	;'A'
  2286     0096  3454               	retlw	84	;'T'
  2287     0097  3400               	retlw	0
  2288     0072                     
  2289                           	psect	cinit
  2290     07C8                     start_initialization:	
  2291                           ; #config settings
  2292                           
  2293     07C8                     __initialization:
  2294                           
  2295                           ; Initialize objects allocated to BANK1
  2296     07C8  1383               	bcf	3,7	;select IRP bank0
  2297     07C9  30DC               	movlw	low (__pdataBANK1+60)
  2298     07CA  00FD               	movwf	btemp+-1
  2299     07CB  3002               	movlw	high __pidataBANK1
  2300     07CC  00FE               	movwf	btemp
  2301     07CD  3055               	movlw	low __pidataBANK1
  2302     07CE  00FF               	movwf	btemp+1
  2303     07CF  30A0               	movlw	low __pdataBANK1
  2304     07D0  0084               	movwf	4
  2305     07D1  120A  118A  20E2  120A  118A  	fcall	init_ram0
  2306                           
  2307                           ; Initialize objects allocated to COMMON
  2308     07D6  120A  118A  20A5  120A  118A  	fcall	__pidataCOMMON	;fetch initializer
  2309     07DB  00F7               	movwf	__pdataCOMMON& (0+127)
  2310     07DC  120A  118A  20A6  120A  118A  	fcall	__pidataCOMMON+1	;fetch initializer
  2311     07E1  00F8               	movwf	(__pdataCOMMON+1)& (0+127)
  2312     07E2  120A  118A  20A7  120A  118A  	fcall	__pidataCOMMON+2	;fetch initializer
  2313     07E7  00F9               	movwf	(__pdataCOMMON+2)& (0+127)
  2314                           
  2315                           ; Clear objects allocated to BANK3
  2316     07E8  1783               	bsf	3,7	;select IRP bank2
  2317     07E9  3090               	movlw	low __pbssBANK3
  2318     07EA  0084               	movwf	4
  2319     07EB  30B0               	movlw	low (__pbssBANK3+32)
  2320     07EC  120A  118A  20A8  120A  118A  	fcall	clear_ram0
  2321                           
  2322                           ; Clear objects allocated to BANK0
  2323     07F1  1383               	bcf	3,7	;select IRP bank0
  2324     07F2  3020               	movlw	low __pbssBANK0
  2325     07F3  0084               	movwf	4
  2326     07F4  3044               	movlw	low (__pbssBANK0+36)
  2327     07F5  120A  118A  20A8  120A  118A  	fcall	clear_ram0
  2328                           
  2329                           ; Clear objects allocated to COMMON
  2330     07FA  01FA               	clrf	__pbssCOMMON& (0+127)
  2331     07FB  01FB               	clrf	(__pbssCOMMON+1)& (0+127)
  2332     07FC                     end_of_initialization:	
  2333                           ;End of C runtime variable initialization code
  2334                           
  2335     07FC                     __end_of__initialization:
  2336     07FC  0183               	clrf	3
  2337     07FD  120A  118A  2E54   	ljmp	_main	;jump to C main() function
  2338                           
  2339                           	psect	bssCOMMON
  2340     007A                     __pbssCOMMON:
  2341     007A                     _pos:
  2342     007A                     	ds	2
  2343                           
  2344                           	psect	dataCOMMON
  2345     0077                     __pdataCOMMON:
  2346     0077                     _mode:
  2347     0077                     	ds	1
  2348     0078                     _LCD_display_control:
  2349     0078                     	ds	1
  2350     0079                     _LCD_entry_mode:
  2351     0079                     	ds	1
  2352                           
  2353                           	psect	bssBANK0
  2354     0020                     __pbssBANK0:
  2355     0020                     modff@F522:
  2356     0020                     	ds	4
  2357     0024                     _test:
  2358     0024                     	ds	2
  2359     0026                     _StringReceive:
  2360     0026                     	ds	30
  2361                           
  2362                           	psect	dataBANK1
  2363     00A0                     __pdataBANK1:
  2364     00A0                     _PassWord:
  2365     00A0                     	ds	30
  2366     00BE                     _WifiName:
  2367     00BE                     	ds	30
  2368                           
  2369                           	psect	bssBANK3
  2370     0190                     __pbssBANK3:
  2371     0190                     _StringDisplay:
  2372     0190                     	ds	32
  2373                           
  2374                           	psect	inittext
  2375     00DE                     init_fetch0:	
  2376                           ;	Called with low address in FSR and high address in W
  2377                           
  2378     00DE  087E               	movf	btemp,w
  2379     00DF  008A               	movwf	10
  2380     00E0  087F               	movf	btemp+1,w
  2381     00E1  0082               	movwf	2
  2382     00E2                     init_ram0:	
  2383                           ;Called with:
  2384                           ;	high address of idata address in btemp 
  2385                           ;	low address of idata address in btemp+1 
  2386                           ;	low address of data in FSR
  2387                           ;	high address + 1 of data in btemp-1
  2388                           
  2389     00E2  120A  118A  20DE  120A  118A  	fcall	init_fetch0
  2390     00E7  0080               	movwf	0
  2391     00E8  0A84               	incf	4,f
  2392     00E9  0804               	movf	4,w
  2393     00EA  067D               	xorwf	btemp+-1,w
  2394     00EB  1903               	btfsc	3,2
  2395     00EC  3400               	retlw	0
  2396     00ED  0AFF               	incf	btemp+1,f
  2397     00EE  1903               	btfsc	3,2
  2398     00EF  0AFE               	incf	btemp,f
  2399     00F0  28E2               	goto	init_ram0
  2400                           
  2401                           	psect	clrtext
  2402     00A8                     clear_ram0:	
  2403                           ;	Called with FSR containing the base address, and
  2404                           ;	W with the last address+1
  2405                           
  2406     00A8  0064               	clrwdt	;clear the watchdog before getting into this loop
  2407     00A9                     clrloop0:
  2408     00A9  0180               	clrf	0	;clear RAM location pointed to by FSR
  2409     00AA  0A84               	incf	4,f	;increment pointer
  2410     00AB  0604               	xorwf	4,w	;XOR with final address
  2411     00AC  1903               	btfsc	3,2	;have we reached the end yet?
  2412     00AD  3400               	retlw	0	;all done for this memory range, return
  2413     00AE  0604               	xorwf	4,w	;XOR again to restore value
  2414     00AF  28A9               	goto	clrloop0	;do the next byte
  2415                           
  2416                           	psect	cstackCOMMON
  2417     0071                     __pcstackCOMMON:
  2418     0071                     ?_LCD_write_command:
  2419     0071                     ?_LCD_write_data:	
  2420                           ; 1 bytes @ 0x0
  2421                           
  2422     0071                     ?_LCD_pulse_clock:	
  2423                           ; 1 bytes @ 0x0
  2424                           
  2425     0071                     ?_InitKeypad:	
  2426                           ; 1 bytes @ 0x0
  2427                           
  2428     0071                     ?_InitUART:	
  2429                           ; 1 bytes @ 0x0
  2430                           
  2431     0071                     ?_switch_press_scan:	
  2432                           ; 1 bytes @ 0x0
  2433                           
  2434     0071                     ?_LCD_clear:	
  2435                           ; 1 bytes @ 0x0
  2436                           
  2437     0071                     ?_LCD_init:	
  2438                           ; 1 bytes @ 0x0
  2439                           
  2440     0071                     ?_LCD_write_char:	
  2441                           ; 1 bytes @ 0x0
  2442                           
  2443     0071                     ?_LCD_write_string:	
  2444                           ; 1 bytes @ 0x0
  2445                           
  2446     0071                     ?_ClearStringReceive:	
  2447                           ; 1 bytes @ 0x0
  2448                           
  2449     0071                     ??_ClearStringReceive:	
  2450                           ; 1 bytes @ 0x0
  2451                           
  2452     0071                     ?_main:	
  2453                           ; 1 bytes @ 0x0
  2454                           
  2455     0071                     ?_ISR:	
  2456                           ; 1 bytes @ 0x0
  2457                           
  2458     0071                     ?_SendByteSerially:	
  2459                           ; 1 bytes @ 0x0
  2460                           
  2461     0071                     ?_keypad_scanner:	
  2462                           ; 1 bytes @ 0x0
  2463                           
  2464     0071                     ClearStringReceive@i:	
  2465                           ; 1 bytes @ 0x0
  2466                           
  2467                           
  2468                           ; 2 bytes @ 0x0
  2469     0071                     	ds	2
  2470     0073                     ??_ISR:
  2471                           
  2472                           ; 1 bytes @ 0x2
  2473     0073                     	ds	4
  2474                           
  2475                           	psect	cstackBANK0
  2476     0044                     __pcstackBANK0:
  2477     0044                     ??_LCD_pulse_clock:
  2478     0044                     ??_InitKeypad:	
  2479                           ; 1 bytes @ 0x0
  2480                           
  2481     0044                     ??_InitUART:	
  2482                           ; 1 bytes @ 0x0
  2483                           
  2484     0044                     ?_strchr:	
  2485                           ; 1 bytes @ 0x0
  2486                           
  2487     0044                     ??_SendByteSerially:	
  2488                           ; 1 bytes @ 0x0
  2489                           
  2490     0044                     ??_keypad_scanner:	
  2491                           ; 1 bytes @ 0x0
  2492                           
  2493     0044                     ?_strlen:	
  2494                           ; 1 bytes @ 0x0
  2495                           
  2496     0044                     ?_strncmp:	
  2497                           ; 2 bytes @ 0x0
  2498                           
  2499     0044                     SendByteSerially@Byte:	
  2500                           ; 2 bytes @ 0x0
  2501                           
  2502     0044                     strncmp@r:	
  2503                           ; 1 bytes @ 0x0
  2504                           
  2505     0044                     strchr@c:	
  2506                           ; 1 bytes @ 0x0
  2507                           
  2508                           
  2509                           ; 2 bytes @ 0x0
  2510     0044                     	ds	1
  2511     0045                     ??_LCD_write_command:
  2512     0045                     ??_LCD_write_data:	
  2513                           ; 1 bytes @ 0x1
  2514                           
  2515     0045                     ?_SendStringSerially:	
  2516                           ; 1 bytes @ 0x1
  2517                           
  2518     0045                     SendStringSerially@st:	
  2519                           ; 1 bytes @ 0x1
  2520                           
  2521     0045                     strncmp@n:	
  2522                           ; 2 bytes @ 0x1
  2523                           
  2524                           
  2525                           ; 2 bytes @ 0x1
  2526     0045                     	ds	1
  2527     0046                     ??_switch_press_scan:
  2528     0046                     ??_strlen:	
  2529                           ; 1 bytes @ 0x2
  2530                           
  2531     0046                     ??_strchr:	
  2532                           ; 1 bytes @ 0x2
  2533                           
  2534     0046                     switch_press_scan@key:	
  2535                           ; 1 bytes @ 0x2
  2536                           
  2537     0046                     strchr@s:	
  2538                           ; 1 bytes @ 0x2
  2539                           
  2540     0046                     strlen@a:	
  2541                           ; 1 bytes @ 0x2
  2542                           
  2543                           
  2544                           ; 1 bytes @ 0x2
  2545     0046                     	ds	1
  2546     0047                     ?_SendCommandAT:
  2547     0047                     ??_strncmp:	
  2548                           ; 1 bytes @ 0x3
  2549                           
  2550     0047                     ??_SendStringSerially:	
  2551                           ; 1 bytes @ 0x3
  2552                           
  2553     0047                     LCD_write_command@command:	
  2554                           ; 1 bytes @ 0x3
  2555                           
  2556     0047                     LCD_write_data@data:	
  2557                           ; 1 bytes @ 0x3
  2558                           
  2559     0047                     strlen@s:	
  2560                           ; 1 bytes @ 0x3
  2561                           
  2562     0047                     SendCommandAT@command:	
  2563                           ; 1 bytes @ 0x3
  2564                           
  2565                           
  2566                           ; 2 bytes @ 0x3
  2567     0047                     	ds	1
  2568     0048                     ?_LCD_cursor_set:
  2569     0048                     ??_LCD_clear:	
  2570                           ; 1 bytes @ 0x4
  2571                           
  2572     0048                     ??_LCD_write_char:	
  2573                           ; 1 bytes @ 0x4
  2574                           
  2575     0048                     ??_LCD_write_string:	
  2576                           ; 1 bytes @ 0x4
  2577                           
  2578     0048                     LCD_cursor_set@column:	
  2579                           ; 1 bytes @ 0x4
  2580                           
  2581     0048                     LCD_write_char@character:	
  2582                           ; 1 bytes @ 0x4
  2583                           
  2584     0048                     LCD_write_string@i:	
  2585                           ; 1 bytes @ 0x4
  2586                           
  2587                           
  2588                           ; 1 bytes @ 0x4
  2589     0048                     	ds	1
  2590     0049                     ??_LCD_cursor_set:
  2591     0049                     ??_SendCommandAT:	
  2592                           ; 1 bytes @ 0x5
  2593                           
  2594     0049                     ??_LCD_init:	
  2595                           ; 1 bytes @ 0x5
  2596                           
  2597     0049                     LCD_cursor_set@row:	
  2598                           ; 1 bytes @ 0x5
  2599                           
  2600     0049                     LCD_write_string@string:	
  2601                           ; 1 bytes @ 0x5
  2602                           
  2603     0049                     strncmp@l:	
  2604                           ; 1 bytes @ 0x5
  2605                           
  2606                           
  2607                           ; 1 bytes @ 0x5
  2608     0049                     	ds	1
  2609     004A                     ?_strstr:
  2610     004A                     strstr@n:	
  2611                           ; 1 bytes @ 0x6
  2612                           
  2613                           
  2614                           ; 1 bytes @ 0x6
  2615     004A                     	ds	1
  2616     004B                     ??_strstr:
  2617                           
  2618                           ; 1 bytes @ 0x7
  2619     004B                     	ds	2
  2620     004D                     strstr@nl:
  2621                           
  2622                           ; 2 bytes @ 0x9
  2623     004D                     	ds	2
  2624     004F                     strstr@h:
  2625                           
  2626                           ; 1 bytes @ 0xB
  2627     004F                     	ds	1
  2628     0050                     ??_main:
  2629                           
  2630                           ; 1 bytes @ 0xC
  2631     0050                     	ds	3
  2632     0053                     main@x:
  2633                           
  2634                           ; 1 bytes @ 0xF
  2635     0053                     	ds	1
  2636     0054                     main@Key:
  2637                           
  2638                           ; 1 bytes @ 0x10
  2639     0054                     	ds	1
  2640                           
  2641                           	psect	maintext
  2642     0654                     __pmaintext:	
  2643 ;;
  2644 ;;Main: autosize = 0, tempsize = 3, incstack = 0, save=0
  2645 ;;
  2646 ;; *************** function _main *****************
  2647 ;; Defined at:
  2648 ;;		line 68 in file "main.c"
  2649 ;; Parameters:    Size  Location     Type
  2650 ;;		None
  2651 ;; Auto vars:     Size  Location     Type
  2652 ;;  Key             1   16[BANK0 ] unsigned char 
  2653 ;;  j               2    0        int 
  2654 ;;  x               1   15[BANK0 ] unsigned char 
  2655 ;;  flag            1    0        unsigned char 
  2656 ;; Return value:  Size  Location     Type
  2657 ;;                  1    wreg      void 
  2658 ;; Registers used:
  2659 ;;		wreg, fsr0l, fsr0h, status,2, status,0, btemp+1, pclath, cstack
  2660 ;; Tracked objects:
  2661 ;;		On entry : B00/0
  2662 ;;		On exit  : 0/0
  2663 ;;		Unchanged: 0/0
  2664 ;; Data sizes:     COMMON   BANK0   BANK1   BANK3   BANK2
  2665 ;;      Params:         0       0       0       0       0
  2666 ;;      Locals:         0       2       0       0       0
  2667 ;;      Temps:          0       3       0       0       0
  2668 ;;      Totals:         0       5       0       0       0
  2669 ;;Total ram usage:        5 bytes
  2670 ;; Hardware stack levels required when called: 6
  2671 ;; This function calls:
  2672 ;;		_InitKeypad
  2673 ;;		_InitUART
  2674 ;;		_LCD_clear
  2675 ;;		_LCD_cursor_set
  2676 ;;		_LCD_init
  2677 ;;		_LCD_write_char
  2678 ;;		_LCD_write_string
  2679 ;;		_SendCommandAT
  2680 ;;		_strstr
  2681 ;;		_switch_press_scan
  2682 ;; This function is called by:
  2683 ;;		Startup code after reset
  2684 ;; This function uses a non-reentrant model
  2685 ;;
  2686                           
  2687     0654                     _main:	
  2688                           ;psect for function _main
  2689                           
  2690     0654                     l2619:	
  2691                           ;incstack = 0
  2692                           ; Regs used in _main: [wreg-fsr0h+status,2+status,0+btemp+1+pclath+cstack]
  2693                           
  2694                           
  2695                           ;main.c: 69:     LCD_init();
  2696     0654  120A  118A  2341  120A  118A  	fcall	_LCD_init
  2697                           
  2698                           ;main.c: 70:     LCD_clear();
  2699     0659  120A  118A  2106  120A  118A  	fcall	_LCD_clear
  2700     065E                     l2621:
  2701                           
  2702                           ;main.c: 71:     LCD_cursor_set(1, 1);
  2703     065E  1283               	bcf	3,5	;RP0=0, select bank0
  2704     065F  1303               	bcf	3,6	;RP1=0, select bank0
  2705     0660  01C8               	clrf	LCD_cursor_set@column
  2706     0661  0AC8               	incf	LCD_cursor_set@column,f
  2707     0662  3001               	movlw	1
  2708     0663  120A  118A  21ED  120A  118A  	fcall	_LCD_cursor_set
  2709     0668                     l2623:
  2710                           
  2711                           ;main.c: 72:     LCD_write_string("LCD_init()");
  2712     0668  3053               	movlw	(low ((STR_1-__stringbase)| (0+32768)))& (0+255)
  2713     0669  120A  118A  219F  120A  118A  	fcall	_LCD_write_string
  2714     066E                     l2625:
  2715                           
  2716                           ;main.c: 73:     _delay((unsigned long)((1000)*(4000000/4000.0)));
  2717     066E  3006               	movlw	6
  2718     066F  1283               	bcf	3,5	;RP0=0, select bank0
  2719     0670  1303               	bcf	3,6	;RP1=0, select bank0
  2720     0671  00D2               	movwf	??_main+2
  2721     0672  3013               	movlw	19
  2722     0673  00D1               	movwf	??_main+1
  2723     0674  30AD               	movlw	173
  2724     0675  00D0               	movwf	??_main
  2725     0676                     u2587:
  2726     0676  0BD0               	decfsz	??_main,f
  2727     0677  2E76               	goto	u2587
  2728     0678  0BD1               	decfsz	??_main+1,f
  2729     0679  2E76               	goto	u2587
  2730     067A  0BD2               	decfsz	??_main+2,f
  2731     067B  2E76               	goto	u2587
  2732     067C                     l2627:
  2733                           
  2734                           ;main.c: 74:     InitKeypad();
  2735     067C  120A  118A  20C4  120A  118A  	fcall	_InitKeypad
  2736     0681                     l2629:
  2737                           
  2738                           ;main.c: 75:     LCD_cursor_set(1, 1);
  2739     0681  1283               	bcf	3,5	;RP0=0, select bank0
  2740     0682  1303               	bcf	3,6	;RP1=0, select bank0
  2741     0683  01C8               	clrf	LCD_cursor_set@column
  2742     0684  0AC8               	incf	LCD_cursor_set@column,f
  2743     0685  3001               	movlw	1
  2744     0686  120A  118A  21ED  120A  118A  	fcall	_LCD_cursor_set
  2745     068B                     l2631:
  2746                           
  2747                           ;main.c: 76:     LCD_write_string("InitKeyPad()");
  2748     068B  303A               	movlw	(low ((STR_2-__stringbase)| (0+32768)))& (0+255)
  2749     068C  120A  118A  219F  120A  118A  	fcall	_LCD_write_string
  2750     0691                     l2633:
  2751                           
  2752                           ;main.c: 77:     _delay((unsigned long)((1000)*(4000000/4000.0)));
  2753     0691  3006               	movlw	6
  2754     0692  1283               	bcf	3,5	;RP0=0, select bank0
  2755     0693  1303               	bcf	3,6	;RP1=0, select bank0
  2756     0694  00D2               	movwf	??_main+2
  2757     0695  3013               	movlw	19
  2758     0696  00D1               	movwf	??_main+1
  2759     0697  30AD               	movlw	173
  2760     0698  00D0               	movwf	??_main
  2761     0699                     u2597:
  2762     0699  0BD0               	decfsz	??_main,f
  2763     069A  2E99               	goto	u2597
  2764     069B  0BD1               	decfsz	??_main+1,f
  2765     069C  2E99               	goto	u2597
  2766     069D  0BD2               	decfsz	??_main+2,f
  2767     069E  2E99               	goto	u2597
  2768     069F                     l2635:
  2769                           
  2770                           ;main.c: 79:     InitUART();
  2771     069F  120A  118A  2134  120A  118A  	fcall	_InitUART
  2772     06A4                     l2637:
  2773                           
  2774                           ;main.c: 80:     LCD_cursor_set(2, 1);
  2775     06A4  1283               	bcf	3,5	;RP0=0, select bank0
  2776     06A5  1303               	bcf	3,6	;RP1=0, select bank0
  2777     06A6  01C8               	clrf	LCD_cursor_set@column
  2778     06A7  0AC8               	incf	LCD_cursor_set@column,f
  2779     06A8  3002               	movlw	2
  2780     06A9  120A  118A  21ED  120A  118A  	fcall	_LCD_cursor_set
  2781     06AE                     l2639:
  2782                           
  2783                           ;main.c: 81:     LCD_write_string("UART Init Success");
  2784     06AE  3028               	movlw	(low ((STR_3-__stringbase)| (0+32768)))& (0+255)
  2785     06AF  120A  118A  219F  120A  118A  	fcall	_LCD_write_string
  2786     06B4                     l2641:
  2787                           
  2788                           ;main.c: 82:     _delay((unsigned long)((1000)*(4000000/4000.0)));
  2789     06B4  3006               	movlw	6
  2790     06B5  1283               	bcf	3,5	;RP0=0, select bank0
  2791     06B6  1303               	bcf	3,6	;RP1=0, select bank0
  2792     06B7  00D2               	movwf	??_main+2
  2793     06B8  3013               	movlw	19
  2794     06B9  00D1               	movwf	??_main+1
  2795     06BA  30AD               	movlw	173
  2796     06BB  00D0               	movwf	??_main
  2797     06BC                     u2607:
  2798     06BC  0BD0               	decfsz	??_main,f
  2799     06BD  2EBC               	goto	u2607
  2800     06BE  0BD1               	decfsz	??_main+1,f
  2801     06BF  2EBC               	goto	u2607
  2802     06C0  0BD2               	decfsz	??_main+2,f
  2803     06C1  2EBC               	goto	u2607
  2804     06C2                     l2643:
  2805                           
  2806                           ;main.c: 87:     LCD_clear();
  2807     06C2  120A  118A  2106  120A  118A  	fcall	_LCD_clear
  2808     06C7                     l2645:
  2809                           
  2810                           ;main.c: 88:     LCD_cursor_set(1, 1);
  2811     06C7  1283               	bcf	3,5	;RP0=0, select bank0
  2812     06C8  1303               	bcf	3,6	;RP1=0, select bank0
  2813     06C9  01C8               	clrf	LCD_cursor_set@column
  2814     06CA  0AC8               	incf	LCD_cursor_set@column,f
  2815     06CB  3001               	movlw	1
  2816     06CC  120A  118A  21ED  120A  118A  	fcall	_LCD_cursor_set
  2817     06D1                     l2647:
  2818                           
  2819                           ;main.c: 89:     SendCommandAT("AT");
  2820     06D1  3073               	movlw	(low ((STR_4-__stringbase)| (0+32768)))& (0+255)
  2821     06D2  1283               	bcf	3,5	;RP0=0, select bank0
  2822     06D3  1303               	bcf	3,6	;RP1=0, select bank0
  2823     06D4  00C7               	movwf	SendCommandAT@command
  2824     06D5  3080               	movlw	128
  2825     06D6  00C8               	movwf	SendCommandAT@command+1
  2826     06D7  120A  118A  211D  120A  118A  	fcall	_SendCommandAT
  2827     06DC                     l2649:
  2828                           
  2829                           ;main.c: 90:     LCD_write_string("AT Sent");
  2830     06DC  3068               	movlw	(low ((STR_5-__stringbase)| (0+32768)))& (0+255)
  2831     06DD  120A  118A  219F  120A  118A  	fcall	_LCD_write_string
  2832     06E2                     l2651:
  2833                           
  2834                           ;main.c: 91:     char x, flag;;main.c: 92:     LCD_cursor_set(2, 1);
  2835     06E2  1283               	bcf	3,5	;RP0=0, select bank0
  2836     06E3  1303               	bcf	3,6	;RP1=0, select bank0
  2837     06E4  01C8               	clrf	LCD_cursor_set@column
  2838     06E5  0AC8               	incf	LCD_cursor_set@column,f
  2839     06E6  3002               	movlw	2
  2840     06E7  120A  118A  21ED  120A  118A  	fcall	_LCD_cursor_set
  2841     06EC                     l2653:
  2842                           
  2843                           ;main.c: 93:     SendCommandAT("Waiting to Response");
  2844     06EC  3001               	movlw	(low ((STR_6-__stringbase)| (0+32768)))& (0+255)
  2845     06ED  1283               	bcf	3,5	;RP0=0, select bank0
  2846     06EE  1303               	bcf	3,6	;RP1=0, select bank0
  2847     06EF  00C7               	movwf	SendCommandAT@command
  2848     06F0  3080               	movlw	128
  2849     06F1  00C8               	movwf	SendCommandAT@command+1
  2850     06F2  120A  118A  211D  120A  118A  	fcall	_SendCommandAT
  2851     06F7                     l2655:
  2852                           
  2853                           ;main.c: 95:         x = strstr(StringReceive, "OK");
  2854     06F7  3050               	movlw	(low (((STR_8+9)-__stringbase)| (0+32768)))& (0+255)
  2855     06F8  1283               	bcf	3,5	;RP0=0, select bank0
  2856     06F9  1303               	bcf	3,6	;RP1=0, select bank0
  2857     06FA  00CA               	movwf	strstr@n
  2858     06FB  3026               	movlw	(low (_StringReceive| 0))& (0+255)
  2859     06FC  120A  118A  2291  120A  118A  	fcall	_strstr
  2860     0701  1283               	bcf	3,5	;RP0=0, select bank0
  2861     0702  1303               	bcf	3,6	;RP1=0, select bank0
  2862     0703  00D3               	movwf	main@x
  2863     0704                     l2657:
  2864                           
  2865                           ;main.c: 96:         if (x != ((void*)0)){
  2866     0704  0853               	movf	main@x,w
  2867     0705  1903               	btfsc	3,2
  2868     0706  2F08               	goto	u2561
  2869     0707  2F09               	goto	u2560
  2870     0708                     u2561:
  2871     0708  2EF7               	goto	l2655
  2872     0709                     u2560:
  2873     0709                     l2659:
  2874                           
  2875                           ;main.c: 97:             test = 1;
  2876     0709  3001               	movlw	1
  2877     070A  00A4               	movwf	_test
  2878     070B  3000               	movlw	0
  2879     070C  00A5               	movwf	_test+1
  2880     070D                     l2661:
  2881                           
  2882                           ;main.c: 98:             SendCommandAT(StringReceive);
  2883     070D  3026               	movlw	(low (_StringReceive| 0))& (0+255)
  2884     070E  00C7               	movwf	SendCommandAT@command
  2885     070F  3000               	movlw	0
  2886     0710  00C8               	movwf	SendCommandAT@command+1
  2887     0711  120A  118A  211D  120A  118A  	fcall	_SendCommandAT
  2888     0716                     l2663:	
  2889                           ;main.c: 99:             break;
  2890                           
  2891                           
  2892                           ;main.c: 102:     _delay((unsigned long)((1000)*(4000000/4000.0)));
  2893     0716  3006               	movlw	6
  2894     0717  1283               	bcf	3,5	;RP0=0, select bank0
  2895     0718  1303               	bcf	3,6	;RP1=0, select bank0
  2896     0719  00D2               	movwf	??_main+2
  2897     071A  3013               	movlw	19
  2898     071B  00D1               	movwf	??_main+1
  2899     071C  30AD               	movlw	173
  2900     071D  00D0               	movwf	??_main
  2901     071E                     u2617:
  2902     071E  0BD0               	decfsz	??_main,f
  2903     071F  2F1E               	goto	u2617
  2904     0720  0BD1               	decfsz	??_main+1,f
  2905     0721  2F1E               	goto	u2617
  2906     0722  0BD2               	decfsz	??_main+2,f
  2907     0723  2F1E               	goto	u2617
  2908     0724                     l2665:
  2909                           
  2910                           ;main.c: 103:     LCD_clear();
  2911     0724  120A  118A  2106  120A  118A  	fcall	_LCD_clear
  2912     0729                     l2667:
  2913                           
  2914                           ;main.c: 104:     LCD_cursor_set(1, 1);
  2915     0729  1283               	bcf	3,5	;RP0=0, select bank0
  2916     072A  1303               	bcf	3,6	;RP1=0, select bank0
  2917     072B  01C8               	clrf	LCD_cursor_set@column
  2918     072C  0AC8               	incf	LCD_cursor_set@column,f
  2919     072D  3001               	movlw	1
  2920     072E  120A  118A  21ED  120A  118A  	fcall	_LCD_cursor_set
  2921     0733                     l2669:
  2922                           
  2923                           ;main.c: 105:     LCD_write_string("Received OK");
  2924     0733  3047               	movlw	(low ((STR_8-__stringbase)| (0+32768)))& (0+255)
  2925     0734  120A  118A  219F  120A  118A  	fcall	_LCD_write_string
  2926     0739                     l2671:
  2927                           
  2928                           ;main.c: 106:     LCD_cursor_set(2, 1);
  2929     0739  1283               	bcf	3,5	;RP0=0, select bank0
  2930     073A  1303               	bcf	3,6	;RP1=0, select bank0
  2931     073B  01C8               	clrf	LCD_cursor_set@column
  2932     073C  0AC8               	incf	LCD_cursor_set@column,f
  2933     073D  3002               	movlw	2
  2934     073E  120A  118A  21ED  120A  118A  	fcall	_LCD_cursor_set
  2935     0743                     l2673:
  2936                           
  2937                           ;main.c: 107:     LCD_write_string("ESP 8266 Connected");
  2938     0743  3015               	movlw	(low ((STR_9-__stringbase)| (0+32768)))& (0+255)
  2939     0744  120A  118A  219F  120A  118A  	fcall	_LCD_write_string
  2940     0749                     l2675:
  2941                           
  2942                           ;main.c: 108:     _delay((unsigned long)((1000)*(4000000/4000.0)));
  2943     0749  3006               	movlw	6
  2944     074A  1283               	bcf	3,5	;RP0=0, select bank0
  2945     074B  1303               	bcf	3,6	;RP1=0, select bank0
  2946     074C  00D2               	movwf	??_main+2
  2947     074D  3013               	movlw	19
  2948     074E  00D1               	movwf	??_main+1
  2949     074F  30AD               	movlw	173
  2950     0750  00D0               	movwf	??_main
  2951     0751                     u2627:
  2952     0751  0BD0               	decfsz	??_main,f
  2953     0752  2F51               	goto	u2627
  2954     0753  0BD1               	decfsz	??_main+1,f
  2955     0754  2F51               	goto	u2627
  2956     0755  0BD2               	decfsz	??_main+2,f
  2957     0756  2F51               	goto	u2627
  2958     0757                     l2677:
  2959                           
  2960                           ;main.c: 109:     SendCommandAT("Received OK");
  2961     0757  3047               	movlw	(low ((STR_8-__stringbase)| (0+32768)))& (0+255)
  2962     0758  1283               	bcf	3,5	;RP0=0, select bank0
  2963     0759  1303               	bcf	3,6	;RP1=0, select bank0
  2964     075A  00C7               	movwf	SendCommandAT@command
  2965     075B  3080               	movlw	128
  2966     075C  00C8               	movwf	SendCommandAT@command+1
  2967     075D  120A  118A  211D  120A  118A  	fcall	_SendCommandAT
  2968     0762                     l2679:
  2969                           
  2970                           ;main.c: 110:     SendCommandAT(StringReceive);
  2971     0762  3026               	movlw	(low (_StringReceive| 0))& (0+255)
  2972     0763  1283               	bcf	3,5	;RP0=0, select bank0
  2973     0764  1303               	bcf	3,6	;RP1=0, select bank0
  2974     0765  00C7               	movwf	SendCommandAT@command
  2975     0766  3000               	movlw	0
  2976     0767  00C8               	movwf	SendCommandAT@command+1
  2977     0768  120A  118A  211D  120A  118A  	fcall	_SendCommandAT
  2978     076D                     l2681:
  2979                           
  2980                           ;main.c: 112:     _delay((unsigned long)((1000)*(4000000/4000.0)));
  2981     076D  3006               	movlw	6
  2982     076E  1283               	bcf	3,5	;RP0=0, select bank0
  2983     076F  1303               	bcf	3,6	;RP1=0, select bank0
  2984     0770  00D2               	movwf	??_main+2
  2985     0771  3013               	movlw	19
  2986     0772  00D1               	movwf	??_main+1
  2987     0773  30AD               	movlw	173
  2988     0774  00D0               	movwf	??_main
  2989     0775                     u2637:
  2990     0775  0BD0               	decfsz	??_main,f
  2991     0776  2F75               	goto	u2637
  2992     0777  0BD1               	decfsz	??_main+1,f
  2993     0778  2F75               	goto	u2637
  2994     0779  0BD2               	decfsz	??_main+2,f
  2995     077A  2F75               	goto	u2637
  2996     077B                     l2683:
  2997     077B                     l2685:
  2998                           
  2999                           ;main.c: 128:         LCD_clear();
  3000     077B  120A  118A  2106  120A  118A  	fcall	_LCD_clear
  3001     0780                     l2687:
  3002                           
  3003                           ;main.c: 129:         LCD_cursor_set(1, 1);
  3004     0780  1283               	bcf	3,5	;RP0=0, select bank0
  3005     0781  1303               	bcf	3,6	;RP1=0, select bank0
  3006     0782  01C8               	clrf	LCD_cursor_set@column
  3007     0783  0AC8               	incf	LCD_cursor_set@column,f
  3008     0784  3001               	movlw	1
  3009     0785  120A  118A  21ED  120A  118A  	fcall	_LCD_cursor_set
  3010     078A                     l2689:
  3011                           
  3012                           ;main.c: 130:         LCD_write_string("Enter Key");
  3013     078A  305E               	movlw	(low ((STR_11-__stringbase)| (0+32768)))& (0+255)
  3014     078B  120A  118A  219F  120A  118A  	fcall	_LCD_write_string
  3015     0790                     l2691:
  3016     0790                     l2693:
  3017                           
  3018                           ;main.c: 132:         LCD_cursor_set(2, 1);
  3019     0790  1283               	bcf	3,5	;RP0=0, select bank0
  3020     0791  1303               	bcf	3,6	;RP1=0, select bank0
  3021     0792  01C8               	clrf	LCD_cursor_set@column
  3022     0793  0AC8               	incf	LCD_cursor_set@column,f
  3023     0794  3002               	movlw	2
  3024     0795  120A  118A  21ED  120A  118A  	fcall	_LCD_cursor_set
  3025     079A                     l2695:
  3026                           
  3027                           ;main.c: 134:             LCD_write_char('Z');
  3028     079A  305A               	movlw	90
  3029     079B  120A  118A  20B0  120A  118A  	fcall	_LCD_write_char
  3030     07A0                     l2697:
  3031                           
  3032                           ;main.c: 135:             Key = switch_press_scan();
  3033     07A0  120A  118A  20F1  120A  118A  	fcall	_switch_press_scan
  3034     07A5  1283               	bcf	3,5	;RP0=0, select bank0
  3035     07A6  1303               	bcf	3,6	;RP1=0, select bank0
  3036     07A7  00D4               	movwf	main@Key
  3037     07A8                     l2699:
  3038                           
  3039                           ;main.c: 136:             LCD_write_char(Key);
  3040     07A8  0854               	movf	main@Key,w
  3041     07A9  120A  118A  20B0  120A  118A  	fcall	_LCD_write_char
  3042     07AE                     l2701:
  3043                           
  3044                           ;main.c: 137:             if(Key == 'C'){
  3045     07AE  3043               	movlw	67
  3046     07AF  1283               	bcf	3,5	;RP0=0, select bank0
  3047     07B0  1303               	bcf	3,6	;RP1=0, select bank0
  3048     07B1  0654               	xorwf	main@Key,w
  3049     07B2  1D03               	btfss	3,2
  3050     07B3  2FB5               	goto	u2571
  3051     07B4  2FB6               	goto	u2570
  3052     07B5                     u2571:
  3053     07B5  2F9A               	goto	l2695
  3054     07B6                     u2570:
  3055     07B6                     l2705:
  3056                           
  3057                           ;main.c: 142:         _delay((unsigned long)((1000)*(4000000/4000.0)));
  3058     07B6  3006               	movlw	6
  3059     07B7  1283               	bcf	3,5	;RP0=0, select bank0
  3060     07B8  1303               	bcf	3,6	;RP1=0, select bank0
  3061     07B9  00D2               	movwf	??_main+2
  3062     07BA  3013               	movlw	19
  3063     07BB  00D1               	movwf	??_main+1
  3064     07BC  30AD               	movlw	173
  3065     07BD  00D0               	movwf	??_main
  3066     07BE                     u2647:
  3067     07BE  0BD0               	decfsz	??_main,f
  3068     07BF  2FBE               	goto	u2647
  3069     07C0  0BD1               	decfsz	??_main+1,f
  3070     07C1  2FBE               	goto	u2647
  3071     07C2  0BD2               	decfsz	??_main+2,f
  3072     07C3  2FBE               	goto	u2647
  3073     07C4  2F7B               	goto	l2685
  3074     07C5  120A  118A  2810   	ljmp	start
  3075     07C8                     __end_of_main:
  3076                           
  3077                           	psect	text1
  3078     00F1                     __ptext1:	
  3079 ;; *************** function _switch_press_scan *****************
  3080 ;; Defined at:
  3081 ;;		line 49 in file "KeyPad.c"
  3082 ;; Parameters:    Size  Location     Type
  3083 ;;		None
  3084 ;; Auto vars:     Size  Location     Type
  3085 ;;  key             1    2[BANK0 ] unsigned char 
  3086 ;; Return value:  Size  Location     Type
  3087 ;;                  1    wreg      unsigned char 
  3088 ;; Registers used:
  3089 ;;		wreg, status,2, status,0, pclath, cstack
  3090 ;; Tracked objects:
  3091 ;;		On entry : 0/0
  3092 ;;		On exit  : 0/0
  3093 ;;		Unchanged: 0/0
  3094 ;; Data sizes:     COMMON   BANK0   BANK1   BANK3   BANK2
  3095 ;;      Params:         0       0       0       0       0
  3096 ;;      Locals:         0       1       0       0       0
  3097 ;;      Temps:          0       0       0       0       0
  3098 ;;      Totals:         0       1       0       0       0
  3099 ;;Total ram usage:        1 bytes
  3100 ;; Hardware stack levels used: 1
  3101 ;; Hardware stack levels required when called: 3
  3102 ;; This function calls:
  3103 ;;		_keypad_scanner
  3104 ;; This function is called by:
  3105 ;;		_main
  3106 ;; This function uses a non-reentrant model
  3107 ;;
  3108                           
  3109     00F1                     _switch_press_scan:	
  3110                           ;psect for function _switch_press_scan
  3111                           
  3112     00F1                     l2479:	
  3113                           ;incstack = 0
  3114                           ; Regs used in _switch_press_scan: [wreg+status,2+status,0+pclath+cstack]
  3115                           
  3116                           
  3117                           ;KeyPad.c: 51:  char key = 'n';
  3118     00F1  306E               	movlw	110
  3119     00F2  1283               	bcf	3,5	;RP0=0, select bank0
  3120     00F3  1303               	bcf	3,6	;RP1=0, select bank0
  3121     00F4  00C6               	movwf	switch_press_scan@key
  3122                           
  3123                           ;KeyPad.c: 53:  while(key=='n')
  3124     00F5  28FE               	goto	l2483
  3125     00F6                     l2481:
  3126                           
  3127                           ;KeyPad.c: 54:   key = keypad_scanner();
  3128     00F6  120A  118A  24E0  120A  118A  	fcall	_keypad_scanner
  3129     00FB  1283               	bcf	3,5	;RP0=0, select bank0
  3130     00FC  1303               	bcf	3,6	;RP1=0, select bank0
  3131     00FD  00C6               	movwf	switch_press_scan@key
  3132     00FE                     l2483:
  3133                           
  3134                           ;KeyPad.c: 53:  while(key=='n')
  3135     00FE  306E               	movlw	110
  3136     00FF  0646               	xorwf	switch_press_scan@key,w
  3137     0100  1903               	btfsc	3,2
  3138     0101  2903               	goto	u2401
  3139     0102  2904               	goto	u2400
  3140     0103                     u2401:
  3141     0103  28F6               	goto	l2481
  3142     0104                     u2400:
  3143     0104                     l2485:
  3144                           
  3145                           ;KeyPad.c: 56:  return key;
  3146     0104  0846               	movf	switch_press_scan@key,w
  3147     0105                     l417:
  3148     0105  0008               	return
  3149     0106                     __end_of_switch_press_scan:
  3150                           
  3151                           	psect	text2
  3152     04E0                     __ptext2:	
  3153 ;; *************** function _keypad_scanner *****************
  3154 ;; Defined at:
  3155 ;;		line 13 in file "KeyPad.c"
  3156 ;; Parameters:    Size  Location     Type
  3157 ;;		None
  3158 ;; Auto vars:     Size  Location     Type
  3159 ;;		None
  3160 ;; Return value:  Size  Location     Type
  3161 ;;                  1    wreg      unsigned char 
  3162 ;; Registers used:
  3163 ;;		wreg
  3164 ;; Tracked objects:
  3165 ;;		On entry : 0/0
  3166 ;;		On exit  : 0/0
  3167 ;;		Unchanged: 0/0
  3168 ;; Data sizes:     COMMON   BANK0   BANK1   BANK3   BANK2
  3169 ;;      Params:         0       0       0       0       0
  3170 ;;      Locals:         0       0       0       0       0
  3171 ;;      Temps:          0       2       0       0       0
  3172 ;;      Totals:         0       2       0       0       0
  3173 ;;Total ram usage:        2 bytes
  3174 ;; Hardware stack levels used: 1
  3175 ;; Hardware stack levels required when called: 2
  3176 ;; This function calls:
  3177 ;;		Nothing
  3178 ;; This function is called by:
  3179 ;;		_switch_press_scan
  3180 ;; This function uses a non-reentrant model
  3181 ;;
  3182                           
  3183     04E0                     _keypad_scanner:	
  3184                           ;psect for function _keypad_scanner
  3185                           
  3186     04E0                     l2217:	
  3187                           ;incstack = 0
  3188                           ; Regs used in _keypad_scanner: [wreg]
  3189                           
  3190                           
  3191                           ;KeyPad.c: 15:  RB0 = 0; RB1 = 1; RB2 = 1; RB3 = 1;
  3192     04E0  1283               	bcf	3,5	;RP0=0, select bank0
  3193     04E1  1303               	bcf	3,6	;RP1=0, select bank0
  3194     04E2  1006               	bcf	6,0	;volatile
  3195     04E3  1486               	bsf	6,1	;volatile
  3196     04E4  1506               	bsf	6,2	;volatile
  3197     04E5  1586               	bsf	6,3	;volatile
  3198                           
  3199                           ;KeyPad.c: 17:  if (RB4 == 0) { _delay((unsigned long)((100)*(4000000/4000.0))); while (
      +                          RB4==0); return '1'; }
  3200     04E6  1A06               	btfsc	6,4	;volatile
  3201     04E7  2CE9               	goto	u1911
  3202     04E8  2CEA               	goto	u1910
  3203     04E9                     u1911:
  3204     04E9  2CFC               	goto	l347
  3205     04EA                     u1910:
  3206     04EA                     l2219:
  3207     04EA  3082               	movlw	130
  3208     04EB  1283               	bcf	3,5	;RP0=0, select bank0
  3209     04EC  1303               	bcf	3,6	;RP1=0, select bank0
  3210     04ED  00C5               	movwf	??_keypad_scanner+1
  3211     04EE  30DD               	movlw	221
  3212     04EF  00C4               	movwf	??_keypad_scanner
  3213     04F0                     u2657:
  3214     04F0  0BC4               	decfsz	??_keypad_scanner,f
  3215     04F1  2CF0               	goto	u2657
  3216     04F2  0BC5               	decfsz	??_keypad_scanner+1,f
  3217     04F3  2CF0               	goto	u2657
  3218     04F4                     l348:
  3219     04F4  1283               	bcf	3,5	;RP0=0, select bank0
  3220     04F5  1303               	bcf	3,6	;RP1=0, select bank0
  3221     04F6  1E06               	btfss	6,4	;volatile
  3222     04F7  2CF9               	goto	u1921
  3223     04F8  2CFA               	goto	u1920
  3224     04F9                     u1921:
  3225     04F9  2CF4               	goto	l348
  3226     04FA                     u1920:
  3227     04FA                     l2221:
  3228     04FA  3031               	movlw	49
  3229     04FB  2E53               	goto	l351
  3230     04FC                     l347:
  3231                           
  3232                           ;KeyPad.c: 18:  if (RB5 == 0) { _delay((unsigned long)((100)*(4000000/4000.0))); while (
      +                          RB5==0); return '2'; }
  3233     04FC  1A86               	btfsc	6,5	;volatile
  3234     04FD  2CFF               	goto	u1931
  3235     04FE  2D00               	goto	u1930
  3236     04FF                     u1931:
  3237     04FF  2D12               	goto	l352
  3238     0500                     u1930:
  3239     0500                     l2225:
  3240     0500  3082               	movlw	130
  3241     0501  1283               	bcf	3,5	;RP0=0, select bank0
  3242     0502  1303               	bcf	3,6	;RP1=0, select bank0
  3243     0503  00C5               	movwf	??_keypad_scanner+1
  3244     0504  30DD               	movlw	221
  3245     0505  00C4               	movwf	??_keypad_scanner
  3246     0506                     u2667:
  3247     0506  0BC4               	decfsz	??_keypad_scanner,f
  3248     0507  2D06               	goto	u2667
  3249     0508  0BC5               	decfsz	??_keypad_scanner+1,f
  3250     0509  2D06               	goto	u2667
  3251     050A                     l353:
  3252     050A  1283               	bcf	3,5	;RP0=0, select bank0
  3253     050B  1303               	bcf	3,6	;RP1=0, select bank0
  3254     050C  1E86               	btfss	6,5	;volatile
  3255     050D  2D0F               	goto	u1941
  3256     050E  2D10               	goto	u1940
  3257     050F                     u1941:
  3258     050F  2D0A               	goto	l353
  3259     0510                     u1940:
  3260     0510                     l2227:
  3261     0510  3032               	movlw	50
  3262     0511  2E53               	goto	l351
  3263     0512                     l352:
  3264                           
  3265                           ;KeyPad.c: 19:  if (RB6 == 0) { _delay((unsigned long)((100)*(4000000/4000.0))); while (
      +                          RB6==0); return '3'; }
  3266     0512  1B06               	btfsc	6,6	;volatile
  3267     0513  2D15               	goto	u1951
  3268     0514  2D16               	goto	u1950
  3269     0515                     u1951:
  3270     0515  2D28               	goto	l356
  3271     0516                     u1950:
  3272     0516                     l2231:
  3273     0516  3082               	movlw	130
  3274     0517  1283               	bcf	3,5	;RP0=0, select bank0
  3275     0518  1303               	bcf	3,6	;RP1=0, select bank0
  3276     0519  00C5               	movwf	??_keypad_scanner+1
  3277     051A  30DD               	movlw	221
  3278     051B  00C4               	movwf	??_keypad_scanner
  3279     051C                     u2677:
  3280     051C  0BC4               	decfsz	??_keypad_scanner,f
  3281     051D  2D1C               	goto	u2677
  3282     051E  0BC5               	decfsz	??_keypad_scanner+1,f
  3283     051F  2D1C               	goto	u2677
  3284     0520                     l357:
  3285     0520  1283               	bcf	3,5	;RP0=0, select bank0
  3286     0521  1303               	bcf	3,6	;RP1=0, select bank0
  3287     0522  1F06               	btfss	6,6	;volatile
  3288     0523  2D25               	goto	u1961
  3289     0524  2D26               	goto	u1960
  3290     0525                     u1961:
  3291     0525  2D20               	goto	l357
  3292     0526                     u1960:
  3293     0526                     l2233:
  3294     0526  3033               	movlw	51
  3295     0527  2E53               	goto	l351
  3296     0528                     l356:
  3297                           
  3298                           ;KeyPad.c: 20:  if (RB7 == 0) { _delay((unsigned long)((100)*(4000000/4000.0))); while (
      +                          RB7==0); return 'A'; }
  3299     0528  1B86               	btfsc	6,7	;volatile
  3300     0529  2D2B               	goto	u1971
  3301     052A  2D2C               	goto	u1970
  3302     052B                     u1971:
  3303     052B  2D3E               	goto	l360
  3304     052C                     u1970:
  3305     052C                     l2237:
  3306     052C  3082               	movlw	130
  3307     052D  1283               	bcf	3,5	;RP0=0, select bank0
  3308     052E  1303               	bcf	3,6	;RP1=0, select bank0
  3309     052F  00C5               	movwf	??_keypad_scanner+1
  3310     0530  30DD               	movlw	221
  3311     0531  00C4               	movwf	??_keypad_scanner
  3312     0532                     u2687:
  3313     0532  0BC4               	decfsz	??_keypad_scanner,f
  3314     0533  2D32               	goto	u2687
  3315     0534  0BC5               	decfsz	??_keypad_scanner+1,f
  3316     0535  2D32               	goto	u2687
  3317     0536                     l361:
  3318     0536  1283               	bcf	3,5	;RP0=0, select bank0
  3319     0537  1303               	bcf	3,6	;RP1=0, select bank0
  3320     0538  1F86               	btfss	6,7	;volatile
  3321     0539  2D3B               	goto	u1981
  3322     053A  2D3C               	goto	u1980
  3323     053B                     u1981:
  3324     053B  2D36               	goto	l361
  3325     053C                     u1980:
  3326     053C                     l2239:
  3327     053C  3041               	movlw	65
  3328     053D  2E53               	goto	l351
  3329     053E                     l360:
  3330                           
  3331                           ;KeyPad.c: 22:  RB0 = 1; RB1 = 0; RB2 = 1; RB3 = 1;
  3332     053E  1406               	bsf	6,0	;volatile
  3333     053F  1086               	bcf	6,1	;volatile
  3334     0540  1506               	bsf	6,2	;volatile
  3335     0541  1586               	bsf	6,3	;volatile
  3336                           
  3337                           ;KeyPad.c: 24:  if (RB4 == 0) { _delay((unsigned long)((100)*(4000000/4000.0))); while (
      +                          RB4==0); return '4'; }
  3338     0542  1A06               	btfsc	6,4	;volatile
  3339     0543  2D45               	goto	u1991
  3340     0544  2D46               	goto	u1990
  3341     0545                     u1991:
  3342     0545  2D58               	goto	l364
  3343     0546                     u1990:
  3344     0546                     l2243:
  3345     0546  3082               	movlw	130
  3346     0547  1283               	bcf	3,5	;RP0=0, select bank0
  3347     0548  1303               	bcf	3,6	;RP1=0, select bank0
  3348     0549  00C5               	movwf	??_keypad_scanner+1
  3349     054A  30DD               	movlw	221
  3350     054B  00C4               	movwf	??_keypad_scanner
  3351     054C                     u2697:
  3352     054C  0BC4               	decfsz	??_keypad_scanner,f
  3353     054D  2D4C               	goto	u2697
  3354     054E  0BC5               	decfsz	??_keypad_scanner+1,f
  3355     054F  2D4C               	goto	u2697
  3356     0550                     l365:
  3357     0550  1283               	bcf	3,5	;RP0=0, select bank0
  3358     0551  1303               	bcf	3,6	;RP1=0, select bank0
  3359     0552  1E06               	btfss	6,4	;volatile
  3360     0553  2D55               	goto	u2001
  3361     0554  2D56               	goto	u2000
  3362     0555                     u2001:
  3363     0555  2D50               	goto	l365
  3364     0556                     u2000:
  3365     0556                     l2245:
  3366     0556  3034               	movlw	52
  3367     0557  2E53               	goto	l351
  3368     0558                     l364:
  3369                           
  3370                           ;KeyPad.c: 25:  if (RB5 == 0) { _delay((unsigned long)((100)*(4000000/4000.0))); while (
      +                          RB5==0); return '5'; }
  3371     0558  1A86               	btfsc	6,5	;volatile
  3372     0559  2D5B               	goto	u2011
  3373     055A  2D5C               	goto	u2010
  3374     055B                     u2011:
  3375     055B  2D6E               	goto	l368
  3376     055C                     u2010:
  3377     055C                     l2249:
  3378     055C  3082               	movlw	130
  3379     055D  1283               	bcf	3,5	;RP0=0, select bank0
  3380     055E  1303               	bcf	3,6	;RP1=0, select bank0
  3381     055F  00C5               	movwf	??_keypad_scanner+1
  3382     0560  30DD               	movlw	221
  3383     0561  00C4               	movwf	??_keypad_scanner
  3384     0562                     u2707:
  3385     0562  0BC4               	decfsz	??_keypad_scanner,f
  3386     0563  2D62               	goto	u2707
  3387     0564  0BC5               	decfsz	??_keypad_scanner+1,f
  3388     0565  2D62               	goto	u2707
  3389     0566                     l369:
  3390     0566  1283               	bcf	3,5	;RP0=0, select bank0
  3391     0567  1303               	bcf	3,6	;RP1=0, select bank0
  3392     0568  1E86               	btfss	6,5	;volatile
  3393     0569  2D6B               	goto	u2021
  3394     056A  2D6C               	goto	u2020
  3395     056B                     u2021:
  3396     056B  2D66               	goto	l369
  3397     056C                     u2020:
  3398     056C                     l2251:
  3399     056C  3035               	movlw	53
  3400     056D  2E53               	goto	l351
  3401     056E                     l368:
  3402                           
  3403                           ;KeyPad.c: 26:  if (RB6 == 0) { _delay((unsigned long)((100)*(4000000/4000.0))); while (
      +                          RB6==0); return '6'; }
  3404     056E  1B06               	btfsc	6,6	;volatile
  3405     056F  2D71               	goto	u2031
  3406     0570  2D72               	goto	u2030
  3407     0571                     u2031:
  3408     0571  2D84               	goto	l372
  3409     0572                     u2030:
  3410     0572                     l2255:
  3411     0572  3082               	movlw	130
  3412     0573  1283               	bcf	3,5	;RP0=0, select bank0
  3413     0574  1303               	bcf	3,6	;RP1=0, select bank0
  3414     0575  00C5               	movwf	??_keypad_scanner+1
  3415     0576  30DD               	movlw	221
  3416     0577  00C4               	movwf	??_keypad_scanner
  3417     0578                     u2717:
  3418     0578  0BC4               	decfsz	??_keypad_scanner,f
  3419     0579  2D78               	goto	u2717
  3420     057A  0BC5               	decfsz	??_keypad_scanner+1,f
  3421     057B  2D78               	goto	u2717
  3422     057C                     l373:
  3423     057C  1283               	bcf	3,5	;RP0=0, select bank0
  3424     057D  1303               	bcf	3,6	;RP1=0, select bank0
  3425     057E  1F06               	btfss	6,6	;volatile
  3426     057F  2D81               	goto	u2041
  3427     0580  2D82               	goto	u2040
  3428     0581                     u2041:
  3429     0581  2D7C               	goto	l373
  3430     0582                     u2040:
  3431     0582                     l2257:
  3432     0582  3036               	movlw	54
  3433     0583  2E53               	goto	l351
  3434     0584                     l372:
  3435                           
  3436                           ;KeyPad.c: 27:  if (RB7 == 0) { _delay((unsigned long)((100)*(4000000/4000.0))); while (
      +                          RB7==0); return 'B'; }
  3437     0584  1B86               	btfsc	6,7	;volatile
  3438     0585  2D87               	goto	u2051
  3439     0586  2D88               	goto	u2050
  3440     0587                     u2051:
  3441     0587  2D9A               	goto	l376
  3442     0588                     u2050:
  3443     0588                     l2261:
  3444     0588  3082               	movlw	130
  3445     0589  1283               	bcf	3,5	;RP0=0, select bank0
  3446     058A  1303               	bcf	3,6	;RP1=0, select bank0
  3447     058B  00C5               	movwf	??_keypad_scanner+1
  3448     058C  30DD               	movlw	221
  3449     058D  00C4               	movwf	??_keypad_scanner
  3450     058E                     u2727:
  3451     058E  0BC4               	decfsz	??_keypad_scanner,f
  3452     058F  2D8E               	goto	u2727
  3453     0590  0BC5               	decfsz	??_keypad_scanner+1,f
  3454     0591  2D8E               	goto	u2727
  3455     0592                     l377:
  3456     0592  1283               	bcf	3,5	;RP0=0, select bank0
  3457     0593  1303               	bcf	3,6	;RP1=0, select bank0
  3458     0594  1F86               	btfss	6,7	;volatile
  3459     0595  2D97               	goto	u2061
  3460     0596  2D98               	goto	u2060
  3461     0597                     u2061:
  3462     0597  2D92               	goto	l377
  3463     0598                     u2060:
  3464     0598                     l2263:
  3465     0598  3042               	movlw	66
  3466     0599  2E53               	goto	l351
  3467     059A                     l376:
  3468                           
  3469                           ;KeyPad.c: 29:  RB0 = 1; RB1 = 1; RB2 = 0; RB3 = 1;
  3470     059A  1406               	bsf	6,0	;volatile
  3471     059B  1486               	bsf	6,1	;volatile
  3472     059C  1106               	bcf	6,2	;volatile
  3473     059D  1586               	bsf	6,3	;volatile
  3474                           
  3475                           ;KeyPad.c: 31:  if (RB4 == 0) { _delay((unsigned long)((100)*(4000000/4000.0))); while (
      +                          RB4==0); return '7'; }
  3476     059E  1A06               	btfsc	6,4	;volatile
  3477     059F  2DA1               	goto	u2071
  3478     05A0  2DA2               	goto	u2070
  3479     05A1                     u2071:
  3480     05A1  2DB4               	goto	l380
  3481     05A2                     u2070:
  3482     05A2                     l2267:
  3483     05A2  3082               	movlw	130
  3484     05A3  1283               	bcf	3,5	;RP0=0, select bank0
  3485     05A4  1303               	bcf	3,6	;RP1=0, select bank0
  3486     05A5  00C5               	movwf	??_keypad_scanner+1
  3487     05A6  30DD               	movlw	221
  3488     05A7  00C4               	movwf	??_keypad_scanner
  3489     05A8                     u2737:
  3490     05A8  0BC4               	decfsz	??_keypad_scanner,f
  3491     05A9  2DA8               	goto	u2737
  3492     05AA  0BC5               	decfsz	??_keypad_scanner+1,f
  3493     05AB  2DA8               	goto	u2737
  3494     05AC                     l381:
  3495     05AC  1283               	bcf	3,5	;RP0=0, select bank0
  3496     05AD  1303               	bcf	3,6	;RP1=0, select bank0
  3497     05AE  1E06               	btfss	6,4	;volatile
  3498     05AF  2DB1               	goto	u2081
  3499     05B0  2DB2               	goto	u2080
  3500     05B1                     u2081:
  3501     05B1  2DAC               	goto	l381
  3502     05B2                     u2080:
  3503     05B2                     l2269:
  3504     05B2  3037               	movlw	55
  3505     05B3  2E53               	goto	l351
  3506     05B4                     l380:
  3507                           
  3508                           ;KeyPad.c: 32:  if (RB5 == 0) { _delay((unsigned long)((100)*(4000000/4000.0))); while (
      +                          RB5==0); return '8'; }
  3509     05B4  1A86               	btfsc	6,5	;volatile
  3510     05B5  2DB7               	goto	u2091
  3511     05B6  2DB8               	goto	u2090
  3512     05B7                     u2091:
  3513     05B7  2DCA               	goto	l384
  3514     05B8                     u2090:
  3515     05B8                     l2273:
  3516     05B8  3082               	movlw	130
  3517     05B9  1283               	bcf	3,5	;RP0=0, select bank0
  3518     05BA  1303               	bcf	3,6	;RP1=0, select bank0
  3519     05BB  00C5               	movwf	??_keypad_scanner+1
  3520     05BC  30DD               	movlw	221
  3521     05BD  00C4               	movwf	??_keypad_scanner
  3522     05BE                     u2747:
  3523     05BE  0BC4               	decfsz	??_keypad_scanner,f
  3524     05BF  2DBE               	goto	u2747
  3525     05C0  0BC5               	decfsz	??_keypad_scanner+1,f
  3526     05C1  2DBE               	goto	u2747
  3527     05C2                     l385:
  3528     05C2  1283               	bcf	3,5	;RP0=0, select bank0
  3529     05C3  1303               	bcf	3,6	;RP1=0, select bank0
  3530     05C4  1E86               	btfss	6,5	;volatile
  3531     05C5  2DC7               	goto	u2101
  3532     05C6  2DC8               	goto	u2100
  3533     05C7                     u2101:
  3534     05C7  2DC2               	goto	l385
  3535     05C8                     u2100:
  3536     05C8                     l2275:
  3537     05C8  3038               	movlw	56
  3538     05C9  2E53               	goto	l351
  3539     05CA                     l384:
  3540                           
  3541                           ;KeyPad.c: 33:  if (RB6 == 0) { _delay((unsigned long)((100)*(4000000/4000.0))); while (
      +                          RB6==0); return '9'; }
  3542     05CA  1B06               	btfsc	6,6	;volatile
  3543     05CB  2DCD               	goto	u2111
  3544     05CC  2DCE               	goto	u2110
  3545     05CD                     u2111:
  3546     05CD  2DE0               	goto	l388
  3547     05CE                     u2110:
  3548     05CE                     l2279:
  3549     05CE  3082               	movlw	130
  3550     05CF  1283               	bcf	3,5	;RP0=0, select bank0
  3551     05D0  1303               	bcf	3,6	;RP1=0, select bank0
  3552     05D1  00C5               	movwf	??_keypad_scanner+1
  3553     05D2  30DD               	movlw	221
  3554     05D3  00C4               	movwf	??_keypad_scanner
  3555     05D4                     u2757:
  3556     05D4  0BC4               	decfsz	??_keypad_scanner,f
  3557     05D5  2DD4               	goto	u2757
  3558     05D6  0BC5               	decfsz	??_keypad_scanner+1,f
  3559     05D7  2DD4               	goto	u2757
  3560     05D8                     l389:
  3561     05D8  1283               	bcf	3,5	;RP0=0, select bank0
  3562     05D9  1303               	bcf	3,6	;RP1=0, select bank0
  3563     05DA  1F06               	btfss	6,6	;volatile
  3564     05DB  2DDD               	goto	u2121
  3565     05DC  2DDE               	goto	u2120
  3566     05DD                     u2121:
  3567     05DD  2DD8               	goto	l389
  3568     05DE                     u2120:
  3569     05DE                     l2281:
  3570     05DE  3039               	movlw	57
  3571     05DF  2E53               	goto	l351
  3572     05E0                     l388:
  3573                           
  3574                           ;KeyPad.c: 34:  if (RB7 == 0) { _delay((unsigned long)((100)*(4000000/4000.0))); while (
      +                          RB7==0); return 'C'; }
  3575     05E0  1B86               	btfsc	6,7	;volatile
  3576     05E1  2DE3               	goto	u2131
  3577     05E2  2DE4               	goto	u2130
  3578     05E3                     u2131:
  3579     05E3  2DF6               	goto	l392
  3580     05E4                     u2130:
  3581     05E4                     l2285:
  3582     05E4  3082               	movlw	130
  3583     05E5  1283               	bcf	3,5	;RP0=0, select bank0
  3584     05E6  1303               	bcf	3,6	;RP1=0, select bank0
  3585     05E7  00C5               	movwf	??_keypad_scanner+1
  3586     05E8  30DD               	movlw	221
  3587     05E9  00C4               	movwf	??_keypad_scanner
  3588     05EA                     u2767:
  3589     05EA  0BC4               	decfsz	??_keypad_scanner,f
  3590     05EB  2DEA               	goto	u2767
  3591     05EC  0BC5               	decfsz	??_keypad_scanner+1,f
  3592     05ED  2DEA               	goto	u2767
  3593     05EE                     l393:
  3594     05EE  1283               	bcf	3,5	;RP0=0, select bank0
  3595     05EF  1303               	bcf	3,6	;RP1=0, select bank0
  3596     05F0  1F86               	btfss	6,7	;volatile
  3597     05F1  2DF3               	goto	u2141
  3598     05F2  2DF4               	goto	u2140
  3599     05F3                     u2141:
  3600     05F3  2DEE               	goto	l393
  3601     05F4                     u2140:
  3602     05F4                     l2287:
  3603     05F4  3043               	movlw	67
  3604     05F5  2E53               	goto	l351
  3605     05F6                     l392:
  3606                           
  3607                           ;KeyPad.c: 36:  RB0 = 1; RB1 = 1; RB2 = 1; RB3 = 0;
  3608     05F6  1406               	bsf	6,0	;volatile
  3609     05F7  1486               	bsf	6,1	;volatile
  3610     05F8  1506               	bsf	6,2	;volatile
  3611     05F9  1186               	bcf	6,3	;volatile
  3612                           
  3613                           ;KeyPad.c: 38:  if (RB4 == 0) { _delay((unsigned long)((100)*(4000000/4000.0))); while (
      +                          RB4==0); return '*'; }
  3614     05FA  1A06               	btfsc	6,4	;volatile
  3615     05FB  2DFD               	goto	u2151
  3616     05FC  2DFE               	goto	u2150
  3617     05FD                     u2151:
  3618     05FD  2E10               	goto	l396
  3619     05FE                     u2150:
  3620     05FE                     l2291:
  3621     05FE  3082               	movlw	130
  3622     05FF  1283               	bcf	3,5	;RP0=0, select bank0
  3623     0600  1303               	bcf	3,6	;RP1=0, select bank0
  3624     0601  00C5               	movwf	??_keypad_scanner+1
  3625     0602  30DD               	movlw	221
  3626     0603  00C4               	movwf	??_keypad_scanner
  3627     0604                     u2777:
  3628     0604  0BC4               	decfsz	??_keypad_scanner,f
  3629     0605  2E04               	goto	u2777
  3630     0606  0BC5               	decfsz	??_keypad_scanner+1,f
  3631     0607  2E04               	goto	u2777
  3632     0608                     l397:
  3633     0608  1283               	bcf	3,5	;RP0=0, select bank0
  3634     0609  1303               	bcf	3,6	;RP1=0, select bank0
  3635     060A  1E06               	btfss	6,4	;volatile
  3636     060B  2E0D               	goto	u2161
  3637     060C  2E0E               	goto	u2160
  3638     060D                     u2161:
  3639     060D  2E08               	goto	l397
  3640     060E                     u2160:
  3641     060E                     l2293:
  3642     060E  302A               	movlw	42
  3643     060F  2E53               	goto	l351
  3644     0610                     l396:
  3645                           
  3646                           ;KeyPad.c: 39:  if (RB5 == 0) { _delay((unsigned long)((100)*(4000000/4000.0))); while (
      +                          RB5==0); return '0'; }
  3647     0610  1A86               	btfsc	6,5	;volatile
  3648     0611  2E13               	goto	u2171
  3649     0612  2E14               	goto	u2170
  3650     0613                     u2171:
  3651     0613  2E26               	goto	l400
  3652     0614                     u2170:
  3653     0614                     l2297:
  3654     0614  3082               	movlw	130
  3655     0615  1283               	bcf	3,5	;RP0=0, select bank0
  3656     0616  1303               	bcf	3,6	;RP1=0, select bank0
  3657     0617  00C5               	movwf	??_keypad_scanner+1
  3658     0618  30DD               	movlw	221
  3659     0619  00C4               	movwf	??_keypad_scanner
  3660     061A                     u2787:
  3661     061A  0BC4               	decfsz	??_keypad_scanner,f
  3662     061B  2E1A               	goto	u2787
  3663     061C  0BC5               	decfsz	??_keypad_scanner+1,f
  3664     061D  2E1A               	goto	u2787
  3665     061E                     l401:
  3666     061E  1283               	bcf	3,5	;RP0=0, select bank0
  3667     061F  1303               	bcf	3,6	;RP1=0, select bank0
  3668     0620  1E86               	btfss	6,5	;volatile
  3669     0621  2E23               	goto	u2181
  3670     0622  2E24               	goto	u2180
  3671     0623                     u2181:
  3672     0623  2E1E               	goto	l401
  3673     0624                     u2180:
  3674     0624                     l2299:
  3675     0624  3030               	movlw	48
  3676     0625  2E53               	goto	l351
  3677     0626                     l400:
  3678                           
  3679                           ;KeyPad.c: 40:  if (RB6 == 0) { _delay((unsigned long)((100)*(4000000/4000.0))); while (
      +                          RB6==0); return '#'; }
  3680     0626  1B06               	btfsc	6,6	;volatile
  3681     0627  2E29               	goto	u2191
  3682     0628  2E2A               	goto	u2190
  3683     0629                     u2191:
  3684     0629  2E3C               	goto	l404
  3685     062A                     u2190:
  3686     062A                     l2303:
  3687     062A  3082               	movlw	130
  3688     062B  1283               	bcf	3,5	;RP0=0, select bank0
  3689     062C  1303               	bcf	3,6	;RP1=0, select bank0
  3690     062D  00C5               	movwf	??_keypad_scanner+1
  3691     062E  30DD               	movlw	221
  3692     062F  00C4               	movwf	??_keypad_scanner
  3693     0630                     u2797:
  3694     0630  0BC4               	decfsz	??_keypad_scanner,f
  3695     0631  2E30               	goto	u2797
  3696     0632  0BC5               	decfsz	??_keypad_scanner+1,f
  3697     0633  2E30               	goto	u2797
  3698     0634                     l405:
  3699     0634  1283               	bcf	3,5	;RP0=0, select bank0
  3700     0635  1303               	bcf	3,6	;RP1=0, select bank0
  3701     0636  1F06               	btfss	6,6	;volatile
  3702     0637  2E39               	goto	u2201
  3703     0638  2E3A               	goto	u2200
  3704     0639                     u2201:
  3705     0639  2E34               	goto	l405
  3706     063A                     u2200:
  3707     063A                     l2305:
  3708     063A  3023               	movlw	35
  3709     063B  2E53               	goto	l351
  3710     063C                     l404:
  3711                           
  3712                           ;KeyPad.c: 41:  if (RB7 == 0) { _delay((unsigned long)((100)*(4000000/4000.0))); while (
      +                          RB7==0); return 'D'; }
  3713     063C  1B86               	btfsc	6,7	;volatile
  3714     063D  2E3F               	goto	u2211
  3715     063E  2E40               	goto	u2210
  3716     063F                     u2211:
  3717     063F  2E52               	goto	l2315
  3718     0640                     u2210:
  3719     0640                     l2309:
  3720     0640  3082               	movlw	130
  3721     0641  1283               	bcf	3,5	;RP0=0, select bank0
  3722     0642  1303               	bcf	3,6	;RP1=0, select bank0
  3723     0643  00C5               	movwf	??_keypad_scanner+1
  3724     0644  30DD               	movlw	221
  3725     0645  00C4               	movwf	??_keypad_scanner
  3726     0646                     u2807:
  3727     0646  0BC4               	decfsz	??_keypad_scanner,f
  3728     0647  2E46               	goto	u2807
  3729     0648  0BC5               	decfsz	??_keypad_scanner+1,f
  3730     0649  2E46               	goto	u2807
  3731     064A                     l409:
  3732     064A  1283               	bcf	3,5	;RP0=0, select bank0
  3733     064B  1303               	bcf	3,6	;RP1=0, select bank0
  3734     064C  1F86               	btfss	6,7	;volatile
  3735     064D  2E4F               	goto	u2221
  3736     064E  2E50               	goto	u2220
  3737     064F                     u2221:
  3738     064F  2E4A               	goto	l409
  3739     0650                     u2220:
  3740     0650                     l2311:
  3741     0650  3044               	movlw	68
  3742     0651  2E53               	goto	l351
  3743     0652                     l2315:
  3744                           
  3745                           ;KeyPad.c: 43:  return 'n';
  3746     0652  306E               	movlw	110
  3747     0653                     l351:
  3748     0653  0008               	return
  3749     0654                     __end_of_keypad_scanner:
  3750                           
  3751                           	psect	text3
  3752     0291                     __ptext3:	
  3753 ;; *************** function _strstr *****************
  3754 ;; Defined at:
  3755 ;;		line 4 in file "C:\Program Files\Microchip\xc8\v2.45\pic\sources\c99\common\strstr.c"
  3756 ;; Parameters:    Size  Location     Type
  3757 ;;  h               1    wreg     PTR const unsigned char 
  3758 ;;		 -> NULL(0), StringReceive(30), 
  3759 ;;  n               1    6[BANK0 ] PTR const unsigned char 
  3760 ;;		 -> STR_7(3), 
  3761 ;; Auto vars:     Size  Location     Type
  3762 ;;  h               1   11[BANK0 ] PTR const unsigned char 
  3763 ;;		 -> NULL(0), StringReceive(30), 
  3764 ;;  nl              2    9[BANK0 ] unsigned int 
  3765 ;; Return value:  Size  Location     Type
  3766 ;;                  1    wreg      PTR unsigned char 
  3767 ;; Registers used:
  3768 ;;		wreg, fsr0l, fsr0h, status,2, status,0, btemp+1, pclath, cstack
  3769 ;; Tracked objects:
  3770 ;;		On entry : 0/0
  3771 ;;		On exit  : 0/0
  3772 ;;		Unchanged: 0/0
  3773 ;; Data sizes:     COMMON   BANK0   BANK1   BANK3   BANK2
  3774 ;;      Params:         0       1       0       0       0
  3775 ;;      Locals:         0       3       0       0       0
  3776 ;;      Temps:          0       2       0       0       0
  3777 ;;      Totals:         0       6       0       0       0
  3778 ;;Total ram usage:        6 bytes
  3779 ;; Hardware stack levels used: 1
  3780 ;; Hardware stack levels required when called: 3
  3781 ;; This function calls:
  3782 ;;		_strchr
  3783 ;;		_strlen
  3784 ;;		_strncmp
  3785 ;; This function is called by:
  3786 ;;		_main
  3787 ;; This function uses a non-reentrant model
  3788 ;;
  3789                           
  3790     0291                     _strstr:	
  3791                           ;psect for function _strstr
  3792                           
  3793                           
  3794                           ;incstack = 0
  3795                           ; Regs used in _strstr: [wreg-fsr0h+status,2+status,0+btemp+1+pclath+cstack]
  3796                           ;strstr@h stored from wreg
  3797     0291  1283               	bcf	3,5	;RP0=0, select bank0
  3798     0292  1303               	bcf	3,6	;RP1=0, select bank0
  3799     0293  00CF               	movwf	strstr@h
  3800     0294                     l2459:
  3801     0294  084A               	movf	strstr@n,w
  3802     0295  1903               	btfsc	3,2
  3803     0296  2A98               	goto	u2361
  3804     0297  2A99               	goto	u2360
  3805     0298                     u2361:
  3806     0298  2AE0               	goto	l2475
  3807     0299                     u2360:
  3808     0299                     l2461:
  3809     0299  084A               	movf	strstr@n,w
  3810     029A  120A  118A  2182  120A  118A  	fcall	_strlen
  3811     029F  1283               	bcf	3,5	;RP0=0, select bank0
  3812     02A0  1303               	bcf	3,6	;RP1=0, select bank0
  3813     02A1  0845               	movf	?_strlen+1,w
  3814     02A2  00CE               	movwf	strstr@nl+1
  3815     02A3  0844               	movf	?_strlen,w
  3816     02A4  00CD               	movwf	strstr@nl
  3817     02A5  2AD3               	goto	l2471
  3818     02A6                     l2463:
  3819     02A6  084A               	movf	strstr@n,w
  3820     02A7  00C4               	movwf	strncmp@r
  3821     02A8  084E               	movf	strstr@nl+1,w
  3822     02A9  00C6               	movwf	strncmp@n+1
  3823     02AA  084D               	movf	strstr@nl,w
  3824     02AB  00C5               	movwf	strncmp@n
  3825     02AC  084F               	movf	strstr@h,w
  3826     02AD  120A  118A  22E2  120A  118A  	fcall	_strncmp
  3827     02B2  1283               	bcf	3,5	;RP0=0, select bank0
  3828     02B3  1303               	bcf	3,6	;RP1=0, select bank0
  3829     02B4  0844               	movf	?_strncmp,w
  3830     02B5  0445               	iorwf	?_strncmp+1,w
  3831     02B6  1D03               	btfss	3,2
  3832     02B7  2AB9               	goto	u2371
  3833     02B8  2ABA               	goto	u2370
  3834     02B9                     u2371:
  3835     02B9  2ABC               	goto	l2469
  3836     02BA                     u2370:
  3837     02BA                     l2465:
  3838     02BA  084F               	movf	strstr@h,w
  3839     02BB  2AE1               	goto	l981
  3840     02BC                     l2469:
  3841     02BC  084A               	movf	strstr@n,w
  3842     02BD  0084               	movwf	4
  3843     02BE  120A  118A  201D  120A  118A  	fcall	stringdir
  3844     02C3  00CB               	movwf	??_strstr
  3845     02C4  01CC               	clrf	??_strstr+1
  3846     02C5  084B               	movf	??_strstr,w
  3847     02C6  00C4               	movwf	strchr@c
  3848     02C7  084C               	movf	??_strstr+1,w
  3849     02C8  00C5               	movwf	strchr@c+1
  3850     02C9  084F               	movf	strstr@h,w
  3851     02CA  3E01               	addlw	1
  3852     02CB  120A  118A  214C  120A  118A  	fcall	_strchr
  3853     02D0  1283               	bcf	3,5	;RP0=0, select bank0
  3854     02D1  1303               	bcf	3,6	;RP1=0, select bank0
  3855     02D2  00CF               	movwf	strstr@h
  3856     02D3                     l2471:
  3857     02D3  084F               	movf	strstr@h,w
  3858     02D4  1903               	btfsc	3,2
  3859     02D5  2AD7               	goto	u2381
  3860     02D6  2AD8               	goto	u2380
  3861     02D7                     u2381:
  3862     02D7  2AE0               	goto	l2475
  3863     02D8                     u2380:
  3864     02D8                     l2473:
  3865     02D8  084F               	movf	strstr@h,w
  3866     02D9  0084               	movwf	4
  3867     02DA  1383               	bcf	3,7	;select IRP bank0
  3868     02DB  0800               	movf	0,w
  3869     02DC  1D03               	btfss	3,2
  3870     02DD  2ADF               	goto	u2391
  3871     02DE  2AE0               	goto	u2390
  3872     02DF                     u2391:
  3873     02DF  2AA6               	goto	l2463
  3874     02E0                     u2390:
  3875     02E0                     l2475:
  3876     02E0  3000               	movlw	0
  3877     02E1                     l981:
  3878     02E1  0008               	return
  3879     02E2                     __end_of_strstr:
  3880                           
  3881                           	psect	text4
  3882     02E2                     __ptext4:	
  3883 ;; *************** function _strncmp *****************
  3884 ;; Defined at:
  3885 ;;		line 3 in file "C:\Program Files\Microchip\xc8\v2.45\pic\sources\c99\common\strncmp.c"
  3886 ;; Parameters:    Size  Location     Type
  3887 ;;  l               1    wreg     PTR const unsigned char 
  3888 ;;		 -> NULL(0), StringReceive(30), 
  3889 ;;  r               1    0[BANK0 ] PTR const unsigned char 
  3890 ;;		 -> STR_7(3), 
  3891 ;;  n               2    1[BANK0 ] unsigned int 
  3892 ;; Auto vars:     Size  Location     Type
  3893 ;;  l               1    5[BANK0 ] PTR const unsigned char 
  3894 ;;		 -> NULL(0), StringReceive(30), 
  3895 ;; Return value:  Size  Location     Type
  3896 ;;                  2    0[BANK0 ] int 
  3897 ;; Registers used:
  3898 ;;		wreg, fsr0l, fsr0h, status,2, status,0, btemp+1, pclath
  3899 ;; Tracked objects:
  3900 ;;		On entry : 0/0
  3901 ;;		On exit  : 0/0
  3902 ;;		Unchanged: 0/0
  3903 ;; Data sizes:     COMMON   BANK0   BANK1   BANK3   BANK2
  3904 ;;      Params:         0       3       0       0       0
  3905 ;;      Locals:         0       1       0       0       0
  3906 ;;      Temps:          0       2       0       0       0
  3907 ;;      Totals:         0       6       0       0       0
  3908 ;;Total ram usage:        6 bytes
  3909 ;; Hardware stack levels used: 1
  3910 ;; Hardware stack levels required when called: 2
  3911 ;; This function calls:
  3912 ;;		Nothing
  3913 ;; This function is called by:
  3914 ;;		_strstr
  3915 ;; This function uses a non-reentrant model
  3916 ;;
  3917                           
  3918     02E2                     _strncmp:	
  3919                           ;psect for function _strncmp
  3920                           
  3921                           
  3922                           ;incstack = 0
  3923                           ; Regs used in _strncmp: [wreg-fsr0h+status,2+status,0+btemp+1+pclath]
  3924                           ;strncmp@l stored from wreg
  3925     02E2  1283               	bcf	3,5	;RP0=0, select bank0
  3926     02E3  1303               	bcf	3,6	;RP1=0, select bank0
  3927     02E4  00C9               	movwf	strncmp@l
  3928     02E5                     l2329:
  3929     02E5  3001               	movlw	1
  3930     02E6  02C5               	subwf	strncmp@n,f
  3931     02E7  3000               	movlw	0
  3932     02E8  1C03               	skipc
  3933     02E9  03C6               	decf	strncmp@n+1,f
  3934     02EA  02C6               	subwf	strncmp@n+1,f
  3935     02EB  0A45               	incf	strncmp@n,w
  3936     02EC  1D03               	skipz
  3937     02ED  2AF2               	goto	u2241
  3938     02EE  0A46               	incf	strncmp@n+1,w
  3939     02EF  1D03               	btfss	3,2
  3940     02F0  2AF2               	goto	u2241
  3941     02F1  2AF3               	goto	u2240
  3942     02F2                     u2241:
  3943     02F2  2B04               	goto	l2339
  3944     02F3                     u2240:
  3945     02F3                     l2331:
  3946     02F3  01C4               	clrf	?_strncmp
  3947     02F4  01C5               	clrf	?_strncmp+1
  3948     02F5  2B40               	goto	l1000
  3949     02F6                     l2335:
  3950     02F6  3001               	movlw	1
  3951     02F7  00FF               	movwf	btemp+1
  3952     02F8  087F               	movf	btemp+1,w
  3953     02F9  07C9               	addwf	strncmp@l,f
  3954     02FA  3001               	movlw	1
  3955     02FB  00FF               	movwf	btemp+1
  3956     02FC  087F               	movf	btemp+1,w
  3957     02FD  07C4               	addwf	strncmp@r,f
  3958     02FE                     l2337:
  3959     02FE  3001               	movlw	1
  3960     02FF  02C5               	subwf	strncmp@n,f
  3961     0300  3000               	movlw	0
  3962     0301  1C03               	skipc
  3963     0302  03C6               	decf	strncmp@n+1,f
  3964     0303  02C6               	subwf	strncmp@n+1,f
  3965     0304                     l2339:
  3966     0304  0849               	movf	strncmp@l,w
  3967     0305  0084               	movwf	4
  3968     0306  1383               	bcf	3,7	;select IRP bank0
  3969     0307  0800               	movf	0,w
  3970     0308  1903               	btfsc	3,2
  3971     0309  2B0B               	goto	u2251
  3972     030A  2B0C               	goto	u2250
  3973     030B                     u2251:
  3974     030B  2B2E               	goto	l2347
  3975     030C                     u2250:
  3976     030C                     l2341:
  3977     030C  0844               	movf	strncmp@r,w
  3978     030D  0084               	movwf	4
  3979     030E  120A  118A  201D  120A  118A  	fcall	stringdir
  3980     0313  3A00               	xorlw	0
  3981     0314  1903               	skipnz
  3982     0315  2B17               	goto	u2261
  3983     0316  2B18               	goto	u2260
  3984     0317                     u2261:
  3985     0317  2B2E               	goto	l2347
  3986     0318                     u2260:
  3987     0318                     l2343:
  3988     0318  0845               	movf	strncmp@n,w
  3989     0319  0446               	iorwf	strncmp@n+1,w
  3990     031A  1903               	btfsc	3,2
  3991     031B  2B1D               	goto	u2271
  3992     031C  2B1E               	goto	u2270
  3993     031D                     u2271:
  3994     031D  2B2E               	goto	l2347
  3995     031E                     u2270:
  3996     031E                     l2345:
  3997     031E  0844               	movf	strncmp@r,w
  3998     031F  0084               	movwf	4
  3999     0320  120A  118A  201D  120A  118A  	fcall	stringdir
  4000     0325  00C7               	movwf	??_strncmp
  4001     0326  0849               	movf	strncmp@l,w
  4002     0327  0084               	movwf	4
  4003     0328  0800               	movf	0,w
  4004     0329  0647               	xorwf	??_strncmp,w
  4005     032A  1903               	skipnz
  4006     032B  2B2D               	goto	u2281
  4007     032C  2B2E               	goto	u2280
  4008     032D                     u2281:
  4009     032D  2AF6               	goto	l2335
  4010     032E                     u2280:
  4011     032E                     l2347:
  4012     032E  0844               	movf	strncmp@r,w
  4013     032F  0084               	movwf	4
  4014     0330  120A  118A  201D  120A  118A  	fcall	stringdir
  4015     0335  00C7               	movwf	??_strncmp
  4016     0336  0849               	movf	strncmp@l,w
  4017     0337  0084               	movwf	4
  4018     0338  0800               	movf	0,w
  4019     0339  00C8               	movwf	??_strncmp+1
  4020     033A  0847               	movf	??_strncmp,w
  4021     033B  0248               	subwf	??_strncmp+1,w
  4022     033C  00C4               	movwf	?_strncmp
  4023     033D  01C5               	clrf	?_strncmp+1
  4024     033E  1C03               	skipc
  4025     033F  03C5               	decf	?_strncmp+1,f
  4026     0340                     l1000:
  4027     0340  0008               	return
  4028     0341                     __end_of_strncmp:
  4029                           
  4030                           	psect	text5
  4031     0182                     __ptext5:	
  4032 ;; *************** function _strlen *****************
  4033 ;; Defined at:
  4034 ;;		line 5 in file "C:\Program Files\Microchip\xc8\v2.45\pic\sources\c99\common\strlen.c"
  4035 ;; Parameters:    Size  Location     Type
  4036 ;;  s               1    wreg     PTR const unsigned char 
  4037 ;;		 -> STR_7(3), 
  4038 ;; Auto vars:     Size  Location     Type
  4039 ;;  s               1    3[BANK0 ] PTR const unsigned char 
  4040 ;;		 -> STR_7(3), 
  4041 ;;  a               1    2[BANK0 ] PTR const unsigned char 
  4042 ;;		 -> STR_7(3), 
  4043 ;; Return value:  Size  Location     Type
  4044 ;;                  2    0[BANK0 ] unsigned int 
  4045 ;; Registers used:
  4046 ;;		wreg, fsr0l, fsr0h, status,2, status,0, btemp+1, pclath
  4047 ;; Tracked objects:
  4048 ;;		On entry : 0/0
  4049 ;;		On exit  : 0/0
  4050 ;;		Unchanged: 0/0
  4051 ;; Data sizes:     COMMON   BANK0   BANK1   BANK3   BANK2
  4052 ;;      Params:         0       2       0       0       0
  4053 ;;      Locals:         0       2       0       0       0
  4054 ;;      Temps:          0       0       0       0       0
  4055 ;;      Totals:         0       4       0       0       0
  4056 ;;Total ram usage:        4 bytes
  4057 ;; Hardware stack levels used: 1
  4058 ;; Hardware stack levels required when called: 2
  4059 ;; This function calls:
  4060 ;;		Nothing
  4061 ;; This function is called by:
  4062 ;;		_strstr
  4063 ;; This function uses a non-reentrant model
  4064 ;;
  4065                           
  4066     0182                     _strlen:	
  4067                           ;psect for function _strlen
  4068                           
  4069                           
  4070                           ;incstack = 0
  4071                           ; Regs used in _strlen: [wreg-fsr0h+status,2+status,0+btemp+1+pclath]
  4072                           ;strlen@s stored from wreg
  4073     0182  1283               	bcf	3,5	;RP0=0, select bank0
  4074     0183  1303               	bcf	3,6	;RP1=0, select bank0
  4075     0184  00C7               	movwf	strlen@s
  4076     0185                     l2319:
  4077     0185  0847               	movf	strlen@s,w
  4078     0186  00C6               	movwf	strlen@a
  4079     0187  298C               	goto	l2323
  4080     0188                     l2321:
  4081     0188  3001               	movlw	1
  4082     0189  00FF               	movwf	btemp+1
  4083     018A  087F               	movf	btemp+1,w
  4084     018B  07C7               	addwf	strlen@s,f
  4085     018C                     l2323:
  4086     018C  0847               	movf	strlen@s,w
  4087     018D  0084               	movwf	4
  4088     018E  120A  118A  201D  120A  118A  	fcall	stringdir
  4089     0193  3A00               	xorlw	0
  4090     0194  1D03               	skipz
  4091     0195  2997               	goto	u2231
  4092     0196  2998               	goto	u2230
  4093     0197                     u2231:
  4094     0197  2988               	goto	l2321
  4095     0198                     u2230:
  4096     0198                     l2325:
  4097     0198  0846               	movf	strlen@a,w
  4098     0199  0247               	subwf	strlen@s,w
  4099     019A  00C4               	movwf	?_strlen
  4100     019B  01C5               	clrf	?_strlen+1
  4101     019C  1BC4               	btfsc	?_strlen,7
  4102     019D  03C5               	decf	?_strlen+1,f
  4103     019E                     l996:
  4104     019E  0008               	return
  4105     019F                     __end_of_strlen:
  4106                           
  4107                           	psect	text6
  4108     014C                     __ptext6:	
  4109 ;; *************** function _strchr *****************
  4110 ;; Defined at:
  4111 ;;		line 3 in file "C:\Program Files\Microchip\xc8\v2.45\pic\sources\c99\common\strchr.c"
  4112 ;; Parameters:    Size  Location     Type
  4113 ;;  s               1    wreg     PTR const unsigned char 
  4114 ;;		 -> NULL(0), StringReceive(30), 
  4115 ;;  c               2    0[BANK0 ] int 
  4116 ;; Auto vars:     Size  Location     Type
  4117 ;;  s               1    2[BANK0 ] PTR const unsigned char 
  4118 ;;		 -> NULL(0), StringReceive(30), 
  4119 ;; Return value:  Size  Location     Type
  4120 ;;                  1    wreg      PTR unsigned char 
  4121 ;; Registers used:
  4122 ;;		wreg, fsr0l, fsr0h, status,2, status,0
  4123 ;; Tracked objects:
  4124 ;;		On entry : 0/0
  4125 ;;		On exit  : 0/0
  4126 ;;		Unchanged: 0/0
  4127 ;; Data sizes:     COMMON   BANK0   BANK1   BANK3   BANK2
  4128 ;;      Params:         0       2       0       0       0
  4129 ;;      Locals:         0       1       0       0       0
  4130 ;;      Temps:          0       0       0       0       0
  4131 ;;      Totals:         0       3       0       0       0
  4132 ;;Total ram usage:        3 bytes
  4133 ;; Hardware stack levels used: 1
  4134 ;; Hardware stack levels required when called: 2
  4135 ;; This function calls:
  4136 ;;		Nothing
  4137 ;; This function is called by:
  4138 ;;		_strstr
  4139 ;; This function uses a non-reentrant model
  4140 ;;
  4141                           
  4142     014C                     _strchr:	
  4143                           ;psect for function _strchr
  4144                           
  4145                           
  4146                           ;incstack = 0
  4147                           ; Regs used in _strchr: [wreg-fsr0h+status,2+status,0]
  4148                           ;strchr@s stored from wreg
  4149     014C  1283               	bcf	3,5	;RP0=0, select bank0
  4150     014D  1303               	bcf	3,6	;RP1=0, select bank0
  4151     014E  00C6               	movwf	strchr@s
  4152     014F                     l987:
  4153     014F                     l2351:
  4154     014F  0846               	movf	strchr@s,w
  4155     0150  0084               	movwf	4
  4156     0151  1383               	bcf	3,7	;select IRP bank0
  4157     0152  0800               	movf	0,w
  4158     0153  0644               	xorwf	strchr@c,w
  4159     0154  1D03               	skipz
  4160     0155  2957               	goto	u2291
  4161     0156  2958               	goto	u2290
  4162     0157                     u2291:
  4163     0157  295A               	goto	l2357
  4164     0158                     u2290:
  4165     0158                     l2353:
  4166     0158  0846               	movf	strchr@s,w
  4167     0159  2964               	goto	l989
  4168     015A                     l2357:
  4169     015A  0846               	movf	strchr@s,w
  4170     015B  0084               	movwf	4
  4171     015C  3001               	movlw	1
  4172     015D  07C6               	addwf	strchr@s,f
  4173     015E  0800               	movf	0,w
  4174     015F  1D03               	btfss	3,2
  4175     0160  2962               	goto	u2301
  4176     0161  2963               	goto	u2300
  4177     0162                     u2301:
  4178     0162  294F               	goto	l987
  4179     0163                     u2300:
  4180     0163                     l2359:
  4181     0163  3000               	movlw	0
  4182     0164                     l989:
  4183     0164  0008               	return
  4184     0165                     __end_of_strchr:
  4185                           
  4186                           	psect	text7
  4187     011D                     __ptext7:	
  4188 ;; *************** function _SendCommandAT *****************
  4189 ;; Defined at:
  4190 ;;		line 81 in file "esp8266.c"
  4191 ;; Parameters:    Size  Location     Type
  4192 ;;  command         2    3[BANK0 ] PTR unsigned char 
  4193 ;;		 -> STR_10(12), STR_6(20), STR_4(3), StringReceive(30), 
  4194 ;; Auto vars:     Size  Location     Type
  4195 ;;		None
  4196 ;; Return value:  Size  Location     Type
  4197 ;;                  1    wreg      void 
  4198 ;; Registers used:
  4199 ;;		wreg, fsr0l, fsr0h, status,2, status,0, btemp+1, pclath, cstack
  4200 ;; Tracked objects:
  4201 ;;		On entry : 0/0
  4202 ;;		On exit  : 0/0
  4203 ;;		Unchanged: 0/0
  4204 ;; Data sizes:     COMMON   BANK0   BANK1   BANK3   BANK2
  4205 ;;      Params:         0       2       0       0       0
  4206 ;;      Locals:         0       0       0       0       0
  4207 ;;      Temps:          0       0       0       0       0
  4208 ;;      Totals:         0       2       0       0       0
  4209 ;;Total ram usage:        2 bytes
  4210 ;; Hardware stack levels used: 1
  4211 ;; Hardware stack levels required when called: 4
  4212 ;; This function calls:
  4213 ;;		_SendStringSerially
  4214 ;; This function is called by:
  4215 ;;		_main
  4216 ;; This function uses a non-reentrant model
  4217 ;;
  4218                           
  4219     011D                     _SendCommandAT:	
  4220                           ;psect for function _SendCommandAT
  4221                           
  4222     011D                     l2457:	
  4223                           ;incstack = 0
  4224                           ; Regs used in _SendCommandAT: [wreg-fsr0h+status,2+status,0+btemp+1+pclath+cstack]
  4225                           
  4226                           
  4227                           ;esp8266.c: 81: void SendCommandAT(unsigned char* command);esp8266.c: 82:     {;esp8266.
      +                          c: 84:     SendStringSerially(command);
  4228     011D  1283               	bcf	3,5	;RP0=0, select bank0
  4229     011E  1303               	bcf	3,6	;RP1=0, select bank0
  4230     011F  0847               	movf	SendCommandAT@command,w
  4231     0120  00C5               	movwf	SendStringSerially@st
  4232     0121  0848               	movf	SendCommandAT@command+1,w
  4233     0122  00C6               	movwf	SendStringSerially@st+1
  4234     0123  120A  118A  21C5  120A  118A  	fcall	_SendStringSerially
  4235                           
  4236                           ;esp8266.c: 88:     SendStringSerially("\r\n");
  4237     0128  3070               	movlw	(low ((STR_12-__stringbase)| (0+32768)))& (0+255)
  4238     0129  1283               	bcf	3,5	;RP0=0, select bank0
  4239     012A  1303               	bcf	3,6	;RP1=0, select bank0
  4240     012B  00C5               	movwf	SendStringSerially@st
  4241     012C  3080               	movlw	128
  4242     012D  00C6               	movwf	SendStringSerially@st+1
  4243     012E  120A  118A  21C5  120A  118A  	fcall	_SendStringSerially
  4244     0133                     l317:
  4245     0133  0008               	return
  4246     0134                     __end_of_SendCommandAT:
  4247                           
  4248                           	psect	text8
  4249     01C5                     __ptext8:	
  4250 ;; *************** function _SendStringSerially *****************
  4251 ;; Defined at:
  4252 ;;		line 75 in file "esp8266.c"
  4253 ;; Parameters:    Size  Location     Type
  4254 ;;  st              2    1[BANK0 ] PTR unsigned char 
  4255 ;;		 -> STR_12(3), STR_10(12), STR_6(20), STR_4(3), 
  4256 ;;		 -> StringReceive(30), 
  4257 ;; Auto vars:     Size  Location     Type
  4258 ;;		None
  4259 ;; Return value:  Size  Location     Type
  4260 ;;                  1    wreg      void 
  4261 ;; Registers used:
  4262 ;;		wreg, fsr0l, fsr0h, status,2, status,0, btemp+1, pclath, cstack
  4263 ;; Tracked objects:
  4264 ;;		On entry : 0/0
  4265 ;;		On exit  : 0/0
  4266 ;;		Unchanged: 0/0
  4267 ;; Data sizes:     COMMON   BANK0   BANK1   BANK3   BANK2
  4268 ;;      Params:         0       2       0       0       0
  4269 ;;      Locals:         0       0       0       0       0
  4270 ;;      Temps:          0       0       0       0       0
  4271 ;;      Totals:         0       2       0       0       0
  4272 ;;Total ram usage:        2 bytes
  4273 ;; Hardware stack levels used: 1
  4274 ;; Hardware stack levels required when called: 3
  4275 ;; This function calls:
  4276 ;;		_SendByteSerially
  4277 ;; This function is called by:
  4278 ;;		_SendCommandAT
  4279 ;; This function uses a non-reentrant model
  4280 ;;
  4281                           
  4282     01C5                     _SendStringSerially:	
  4283                           ;psect for function _SendStringSerially
  4284                           
  4285     01C5                     l2209:	
  4286                           ;incstack = 0
  4287                           ; Regs used in _SendStringSerially: [wreg-fsr0h+status,2+status,0+btemp+1+pclath+cstack]
  4288                           
  4289                           
  4290                           ;esp8266.c: 75: void SendStringSerially(unsigned char* st);esp8266.c: 76:     {;esp8266.
      +                          c: 77:     while (*st)
  4291     01C5  29DC               	goto	l2215
  4292     01C6                     l2211:
  4293                           
  4294                           ;esp8266.c: 78:         SendByteSerially(*st++);
  4295     01C6  0846               	movf	SendStringSerially@st+1,w
  4296     01C7  00FF               	movwf	btemp+1
  4297     01C8  0845               	movf	SendStringSerially@st,w
  4298     01C9  0084               	movwf	4
  4299     01CA  120A  118A  2013  120A  118A  	fcall	stringtab
  4300     01CF  120A  118A  20BA  120A  118A  	fcall	_SendByteSerially
  4301     01D4                     l2213:
  4302     01D4  3001               	movlw	1
  4303     01D5  1283               	bcf	3,5	;RP0=0, select bank0
  4304     01D6  1303               	bcf	3,6	;RP1=0, select bank0
  4305     01D7  07C5               	addwf	SendStringSerially@st,f
  4306     01D8  1803               	skipnc
  4307     01D9  0AC6               	incf	SendStringSerially@st+1,f
  4308     01DA  3000               	movlw	0
  4309     01DB  07C6               	addwf	SendStringSerially@st+1,f
  4310     01DC                     l2215:
  4311                           
  4312                           ;esp8266.c: 77:     while (*st)
  4313     01DC  1283               	bcf	3,5	;RP0=0, select bank0
  4314     01DD  1303               	bcf	3,6	;RP1=0, select bank0
  4315     01DE  0846               	movf	SendStringSerially@st+1,w
  4316     01DF  00FF               	movwf	btemp+1
  4317     01E0  0845               	movf	SendStringSerially@st,w
  4318     01E1  0084               	movwf	4
  4319     01E2  120A  118A  2013  120A  118A  	fcall	stringtab
  4320     01E7  3A00               	xorlw	0
  4321     01E8  1D03               	skipz
  4322     01E9  29EB               	goto	u1901
  4323     01EA  29EC               	goto	u1900
  4324     01EB                     u1901:
  4325     01EB  29C6               	goto	l2211
  4326     01EC                     u1900:
  4327     01EC                     l314:
  4328     01EC  0008               	return
  4329     01ED                     __end_of_SendStringSerially:
  4330                           
  4331                           	psect	text9
  4332     00BA                     __ptext9:	
  4333 ;; *************** function _SendByteSerially *****************
  4334 ;; Defined at:
  4335 ;;		line 58 in file "esp8266.c"
  4336 ;; Parameters:    Size  Location     Type
  4337 ;;  Byte            1    wreg     unsigned char 
  4338 ;; Auto vars:     Size  Location     Type
  4339 ;;  Byte            1    0[BANK0 ] unsigned char 
  4340 ;; Return value:  Size  Location     Type
  4341 ;;                  1    wreg      void 
  4342 ;; Registers used:
  4343 ;;		wreg
  4344 ;; Tracked objects:
  4345 ;;		On entry : 0/0
  4346 ;;		On exit  : 0/0
  4347 ;;		Unchanged: 0/0
  4348 ;; Data sizes:     COMMON   BANK0   BANK1   BANK3   BANK2
  4349 ;;      Params:         0       0       0       0       0
  4350 ;;      Locals:         0       1       0       0       0
  4351 ;;      Temps:          0       0       0       0       0
  4352 ;;      Totals:         0       1       0       0       0
  4353 ;;Total ram usage:        1 bytes
  4354 ;; Hardware stack levels used: 1
  4355 ;; Hardware stack levels required when called: 2
  4356 ;; This function calls:
  4357 ;;		Nothing
  4358 ;; This function is called by:
  4359 ;;		_SendStringSerially
  4360 ;; This function uses a non-reentrant model
  4361 ;;
  4362                           
  4363     00BA                     _SendByteSerially:	
  4364                           ;psect for function _SendByteSerially
  4365                           
  4366                           
  4367                           ;incstack = 0
  4368                           ; Regs used in _SendByteSerially: [wreg]
  4369                           ;SendByteSerially@Byte stored from wreg
  4370     00BA  1283               	bcf	3,5	;RP0=0, select bank0
  4371     00BB  1303               	bcf	3,6	;RP1=0, select bank0
  4372     00BC  00C4               	movwf	SendByteSerially@Byte
  4373     00BD                     l2183:
  4374     00BD                     l298:	
  4375                           ;esp8266.c: 58: void SendByteSerially(unsigned char Byte);esp8266.c: 59:     {;esp8266.c
      +                          : 60:     while (!TXIF);
  4376                           
  4377     00BD  1E0C               	btfss	12,4	;volatile
  4378     00BE  28C0               	goto	u1831
  4379     00BF  28C1               	goto	u1830
  4380     00C0                     u1831:
  4381     00C0  28BD               	goto	l298
  4382     00C1                     u1830:
  4383     00C1                     l2185:
  4384                           
  4385                           ;esp8266.c: 61:     TXREG = Byte;
  4386     00C1  0844               	movf	SendByteSerially@Byte,w
  4387     00C2  0099               	movwf	25	;volatile
  4388     00C3                     l301:
  4389     00C3  0008               	return
  4390     00C4                     __end_of_SendByteSerially:
  4391                           
  4392                           	psect	text10
  4393     019F                     __ptext10:	
  4394 ;; *************** function _LCD_write_string *****************
  4395 ;; Defined at:
  4396 ;;		line 9 in file "LCD_write_string.c"
  4397 ;; Parameters:    Size  Location     Type
  4398 ;;  string          1    wreg     PTR unsigned char 
  4399 ;;		 -> STR_11(10), STR_9(19), STR_8(12), STR_5(8), 
  4400 ;;		 -> STR_3(18), STR_2(13), STR_1(11), 
  4401 ;; Auto vars:     Size  Location     Type
  4402 ;;  string          1    5[BANK0 ] PTR unsigned char 
  4403 ;;		 -> STR_11(10), STR_9(19), STR_8(12), STR_5(8), 
  4404 ;;		 -> STR_3(18), STR_2(13), STR_1(11), 
  4405 ;;  i               1    4[BANK0 ] unsigned char 
  4406 ;; Return value:  Size  Location     Type
  4407 ;;                  1    wreg      void 
  4408 ;; Registers used:
  4409 ;;		wreg, fsr0l, fsr0h, status,2, status,0, btemp+1, pclath, cstack
  4410 ;; Tracked objects:
  4411 ;;		On entry : 0/0
  4412 ;;		On exit  : 0/0
  4413 ;;		Unchanged: 0/0
  4414 ;; Data sizes:     COMMON   BANK0   BANK1   BANK3   BANK2
  4415 ;;      Params:         0       0       0       0       0
  4416 ;;      Locals:         0       2       0       0       0
  4417 ;;      Temps:          0       0       0       0       0
  4418 ;;      Totals:         0       2       0       0       0
  4419 ;;Total ram usage:        2 bytes
  4420 ;; Hardware stack levels used: 1
  4421 ;; Hardware stack levels required when called: 4
  4422 ;; This function calls:
  4423 ;;		_LCD_write_data
  4424 ;; This function is called by:
  4425 ;;		_main
  4426 ;; This function uses a non-reentrant model
  4427 ;;
  4428                           
  4429     019F                     _LCD_write_string:	
  4430                           ;psect for function _LCD_write_string
  4431                           
  4432                           
  4433                           ;incstack = 0
  4434                           ; Regs used in _LCD_write_string: [wreg-fsr0h+status,2+status,0+btemp+1+pclath+cstack]
  4435                           ;LCD_write_string@string stored from wreg
  4436     019F  1283               	bcf	3,5	;RP0=0, select bank0
  4437     01A0  1303               	bcf	3,6	;RP1=0, select bank0
  4438     01A1  00C9               	movwf	LCD_write_string@string
  4439     01A2                     l2421:
  4440                           
  4441                           ;LCD_write_string.c: 12:     for(uint8_t i=0 ; string[i] != '\0' ; i++){
  4442     01A2  01C8               	clrf	LCD_write_string@i
  4443     01A3  29B7               	goto	l2427
  4444     01A4                     l2423:
  4445                           
  4446                           ;LCD_write_string.c: 13:         LCD_write_data(string[i]);
  4447     01A4  0848               	movf	LCD_write_string@i,w
  4448     01A5  0749               	addwf	LCD_write_string@string,w
  4449     01A6  0084               	movwf	4
  4450     01A7  120A  118A  201D  120A  118A  	fcall	stringdir
  4451     01AC  120A  118A  244C  120A  118A  	fcall	_LCD_write_data
  4452     01B1                     l2425:
  4453                           
  4454                           ;LCD_write_string.c: 14:     }
  4455     01B1  3001               	movlw	1
  4456     01B2  00FF               	movwf	btemp+1
  4457     01B3  087F               	movf	btemp+1,w
  4458     01B4  1283               	bcf	3,5	;RP0=0, select bank0
  4459     01B5  1303               	bcf	3,6	;RP1=0, select bank0
  4460     01B6  07C8               	addwf	LCD_write_string@i,f
  4461     01B7                     l2427:
  4462     01B7  0848               	movf	LCD_write_string@i,w
  4463     01B8  0749               	addwf	LCD_write_string@string,w
  4464     01B9  0084               	movwf	4
  4465     01BA  120A  118A  201D  120A  118A  	fcall	stringdir
  4466     01BF  3A00               	xorlw	0
  4467     01C0  1D03               	skipz
  4468     01C1  29C3               	goto	u2351
  4469     01C2  29C4               	goto	u2350
  4470     01C3                     u2351:
  4471     01C3  29A4               	goto	l2423
  4472     01C4                     u2350:
  4473     01C4                     l171:
  4474     01C4  0008               	return
  4475     01C5                     __end_of_LCD_write_string:
  4476                           
  4477                           	psect	text11
  4478     00B0                     __ptext11:	
  4479 ;; *************** function _LCD_write_char *****************
  4480 ;; Defined at:
  4481 ;;		line 8 in file "LCD_write_char.c"
  4482 ;; Parameters:    Size  Location     Type
  4483 ;;  character       1    wreg     unsigned char 
  4484 ;; Auto vars:     Size  Location     Type
  4485 ;;  character       1    4[BANK0 ] unsigned char 
  4486 ;; Return value:  Size  Location     Type
  4487 ;;                  1    wreg      void 
  4488 ;; Registers used:
  4489 ;;		wreg, status,2, status,0, pclath, cstack
  4490 ;; Tracked objects:
  4491 ;;		On entry : 0/0
  4492 ;;		On exit  : 0/0
  4493 ;;		Unchanged: 0/0
  4494 ;; Data sizes:     COMMON   BANK0   BANK1   BANK3   BANK2
  4495 ;;      Params:         0       0       0       0       0
  4496 ;;      Locals:         0       1       0       0       0
  4497 ;;      Temps:          0       0       0       0       0
  4498 ;;      Totals:         0       1       0       0       0
  4499 ;;Total ram usage:        1 bytes
  4500 ;; Hardware stack levels used: 1
  4501 ;; Hardware stack levels required when called: 4
  4502 ;; This function calls:
  4503 ;;		_LCD_write_data
  4504 ;; This function is called by:
  4505 ;;		_main
  4506 ;;		_LCD_write_float
  4507 ;; This function uses a non-reentrant model
  4508 ;;
  4509                           
  4510     00B0                     _LCD_write_char:	
  4511                           ;psect for function _LCD_write_char
  4512                           
  4513                           
  4514                           ;incstack = 0
  4515                           ; Regs used in _LCD_write_char: [wreg+status,2+status,0+pclath+cstack]
  4516                           ;LCD_write_char@character stored from wreg
  4517     00B0  1283               	bcf	3,5	;RP0=0, select bank0
  4518     00B1  1303               	bcf	3,6	;RP1=0, select bank0
  4519     00B2  00C8               	movwf	LCD_write_char@character
  4520     00B3                     l2419:
  4521                           
  4522                           ;LCD_write_char.c: 11:     LCD_write_data(character);
  4523     00B3  0848               	movf	LCD_write_char@character,w
  4524     00B4  120A  118A  244C  120A  118A  	fcall	_LCD_write_data
  4525     00B9                     l132:
  4526     00B9  0008               	return
  4527     00BA                     __end_of_LCD_write_char:
  4528                           
  4529                           	psect	text12
  4530     044C                     __ptext12:	
  4531 ;; *************** function _LCD_write_data *****************
  4532 ;; Defined at:
  4533 ;;		line 9 in file "LCD_write_data.c"
  4534 ;; Parameters:    Size  Location     Type
  4535 ;;  data            1    wreg     unsigned char 
  4536 ;; Auto vars:     Size  Location     Type
  4537 ;;  data            1    3[BANK0 ] unsigned char 
  4538 ;; Return value:  Size  Location     Type
  4539 ;;                  1    wreg      void 
  4540 ;; Registers used:
  4541 ;;		wreg, status,2, status,0, pclath, cstack
  4542 ;; Tracked objects:
  4543 ;;		On entry : 0/0
  4544 ;;		On exit  : 0/0
  4545 ;;		Unchanged: 0/0
  4546 ;; Data sizes:     COMMON   BANK0   BANK1   BANK3   BANK2
  4547 ;;      Params:         0       0       0       0       0
  4548 ;;      Locals:         0       1       0       0       0
  4549 ;;      Temps:          0       2       0       0       0
  4550 ;;      Totals:         0       3       0       0       0
  4551 ;;Total ram usage:        3 bytes
  4552 ;; Hardware stack levels used: 1
  4553 ;; Hardware stack levels required when called: 3
  4554 ;; This function calls:
  4555 ;;		_LCD_pulse_clock
  4556 ;; This function is called by:
  4557 ;;		_LCD_write_char
  4558 ;;		_LCD_write_string
  4559 ;;		_LCD_add_character
  4560 ;;		_LCD_write_float
  4561 ;;		_LCD_write_variable
  4562 ;; This function uses a non-reentrant model
  4563 ;;
  4564                           
  4565     044C                     _LCD_write_data:	
  4566                           ;psect for function _LCD_write_data
  4567                           
  4568                           
  4569                           ;incstack = 0
  4570                           ; Regs used in _LCD_write_data: [wreg+status,2+status,0+pclath+cstack]
  4571                           ;LCD_write_data@data stored from wreg
  4572     044C  1283               	bcf	3,5	;RP0=0, select bank0
  4573     044D  1303               	bcf	3,6	;RP1=0, select bank0
  4574     044E  00C7               	movwf	LCD_write_data@data
  4575     044F                     l2187:
  4576                           
  4577                           ;LCD_write_data.c: 11:     PORTDbits.RD2 = 1;
  4578     044F  1508               	bsf	8,2	;volatile
  4579     0450                     l2189:
  4580                           
  4581                           ;LCD_write_data.c: 14:     PORTDbits.RD7 = (data & 0b10000000) >> 7;
  4582     0450  0847               	movf	LCD_write_data@data,w
  4583     0451  00C5               	movwf	??_LCD_write_data
  4584     0452  3007               	movlw	7
  4585     0453                     u1845:
  4586     0453  1003               	clrc
  4587     0454  0CC5               	rrf	??_LCD_write_data,f
  4588     0455  3EFF               	addlw	-1
  4589     0456  1D03               	skipz
  4590     0457  2C53               	goto	u1845
  4591     0458  0845               	movf	??_LCD_write_data,w
  4592     0459  3901               	andlw	1
  4593     045A  00C6               	movwf	??_LCD_write_data+1
  4594     045B  0CC6               	rrf	??_LCD_write_data+1,f
  4595     045C  0CC6               	rrf	??_LCD_write_data+1,f
  4596     045D  0808               	movf	8,w	;volatile
  4597     045E  0646               	xorwf	??_LCD_write_data+1,w
  4598     045F  397F               	andlw	-129
  4599     0460  0646               	xorwf	??_LCD_write_data+1,w
  4600     0461  0088               	movwf	8	;volatile
  4601                           
  4602                           ;LCD_write_data.c: 15:     PORTDbits.RD6 = (data & 0b01000000) >> 6;
  4603     0462  0847               	movf	LCD_write_data@data,w
  4604     0463  00C5               	movwf	??_LCD_write_data
  4605     0464  3006               	movlw	6
  4606     0465                     u1855:
  4607     0465  1003               	clrc
  4608     0466  0CC5               	rrf	??_LCD_write_data,f
  4609     0467  3EFF               	addlw	-1
  4610     0468  1D03               	skipz
  4611     0469  2C65               	goto	u1855
  4612     046A  0845               	movf	??_LCD_write_data,w
  4613     046B  3901               	andlw	1
  4614     046C  00C6               	movwf	??_LCD_write_data+1
  4615     046D  0EC6               	swapf	??_LCD_write_data+1,f
  4616     046E  0DC6               	rlf	??_LCD_write_data+1,f
  4617     046F  0DC6               	rlf	??_LCD_write_data+1,f
  4618     0470  0808               	movf	8,w	;volatile
  4619     0471  0646               	xorwf	??_LCD_write_data+1,w
  4620     0472  39BF               	andlw	-65
  4621     0473  0646               	xorwf	??_LCD_write_data+1,w
  4622     0474  0088               	movwf	8	;volatile
  4623                           
  4624                           ;LCD_write_data.c: 16:     PORTDbits.RD5 = (data & 0b00100000) >> 5;
  4625     0475  0847               	movf	LCD_write_data@data,w
  4626     0476  00C5               	movwf	??_LCD_write_data
  4627     0477  3005               	movlw	5
  4628     0478                     u1865:
  4629     0478  1003               	clrc
  4630     0479  0CC5               	rrf	??_LCD_write_data,f
  4631     047A  3EFF               	addlw	-1
  4632     047B  1D03               	skipz
  4633     047C  2C78               	goto	u1865
  4634     047D  0845               	movf	??_LCD_write_data,w
  4635     047E  3901               	andlw	1
  4636     047F  00C6               	movwf	??_LCD_write_data+1
  4637     0480  0EC6               	swapf	??_LCD_write_data+1,f
  4638     0481  0DC6               	rlf	??_LCD_write_data+1,f
  4639     0482  0808               	movf	8,w	;volatile
  4640     0483  0646               	xorwf	??_LCD_write_data+1,w
  4641     0484  39DF               	andlw	-33
  4642     0485  0646               	xorwf	??_LCD_write_data+1,w
  4643     0486  0088               	movwf	8	;volatile
  4644                           
  4645                           ;LCD_write_data.c: 17:     PORTDbits.RD4 = (data & 0b00010000) >> 4;
  4646     0487  0847               	movf	LCD_write_data@data,w
  4647     0488  00C5               	movwf	??_LCD_write_data
  4648     0489  3004               	movlw	4
  4649     048A                     u1875:
  4650     048A  1003               	clrc
  4651     048B  0CC5               	rrf	??_LCD_write_data,f
  4652     048C  3EFF               	addlw	-1
  4653     048D  1D03               	skipz
  4654     048E  2C8A               	goto	u1875
  4655     048F  0845               	movf	??_LCD_write_data,w
  4656     0490  3901               	andlw	1
  4657     0491  00C6               	movwf	??_LCD_write_data+1
  4658     0492  0EC6               	swapf	??_LCD_write_data+1,f
  4659     0493  0808               	movf	8,w	;volatile
  4660     0494  0646               	xorwf	??_LCD_write_data+1,w
  4661     0495  39EF               	andlw	-17
  4662     0496  0646               	xorwf	??_LCD_write_data+1,w
  4663     0497  0088               	movwf	8	;volatile
  4664     0498                     l2191:
  4665                           
  4666                           ;LCD_write_data.c: 20:     LCD_pulse_clock();
  4667     0498  120A  118A  20D0  120A  118A  	fcall	_LCD_pulse_clock
  4668     049D                     l2193:
  4669                           
  4670                           ;LCD_write_data.c: 23:     PORTDbits.RD7 = (data & 0b00001000) >> 3;
  4671     049D  1283               	bcf	3,5	;RP0=0, select bank0
  4672     049E  1303               	bcf	3,6	;RP1=0, select bank0
  4673     049F  0847               	movf	LCD_write_data@data,w
  4674     04A0  00C5               	movwf	??_LCD_write_data
  4675     04A1  3003               	movlw	3
  4676     04A2                     u1885:
  4677     04A2  1003               	clrc
  4678     04A3  0CC5               	rrf	??_LCD_write_data,f
  4679     04A4  3EFF               	addlw	-1
  4680     04A5  1D03               	skipz
  4681     04A6  2CA2               	goto	u1885
  4682     04A7  0845               	movf	??_LCD_write_data,w
  4683     04A8  3901               	andlw	1
  4684     04A9  00C6               	movwf	??_LCD_write_data+1
  4685     04AA  0CC6               	rrf	??_LCD_write_data+1,f
  4686     04AB  0CC6               	rrf	??_LCD_write_data+1,f
  4687     04AC  0808               	movf	8,w	;volatile
  4688     04AD  0646               	xorwf	??_LCD_write_data+1,w
  4689     04AE  397F               	andlw	-129
  4690     04AF  0646               	xorwf	??_LCD_write_data+1,w
  4691     04B0  0088               	movwf	8	;volatile
  4692     04B1                     l2195:
  4693                           
  4694                           ;LCD_write_data.c: 24:     PORTDbits.RD6 = (data & 0b00000100) >> 2;
  4695     04B1  0847               	movf	LCD_write_data@data,w
  4696     04B2  00C5               	movwf	??_LCD_write_data
  4697     04B3  3002               	movlw	2
  4698     04B4                     u1895:
  4699     04B4  1003               	clrc
  4700     04B5  0CC5               	rrf	??_LCD_write_data,f
  4701     04B6  3EFF               	addlw	-1
  4702     04B7  1D03               	skipz
  4703     04B8  2CB4               	goto	u1895
  4704     04B9  0845               	movf	??_LCD_write_data,w
  4705     04BA  3901               	andlw	1
  4706     04BB  00C6               	movwf	??_LCD_write_data+1
  4707     04BC  0EC6               	swapf	??_LCD_write_data+1,f
  4708     04BD  0DC6               	rlf	??_LCD_write_data+1,f
  4709     04BE  0DC6               	rlf	??_LCD_write_data+1,f
  4710     04BF  0808               	movf	8,w	;volatile
  4711     04C0  0646               	xorwf	??_LCD_write_data+1,w
  4712     04C1  39BF               	andlw	-65
  4713     04C2  0646               	xorwf	??_LCD_write_data+1,w
  4714     04C3  0088               	movwf	8	;volatile
  4715     04C4                     l2197:
  4716                           
  4717                           ;LCD_write_data.c: 25:     PORTDbits.RD5 = (data & 0b00000010) >> 1;
  4718     04C4  0847               	movf	LCD_write_data@data,w
  4719     04C5  00C5               	movwf	??_LCD_write_data
  4720     04C6  1003               	clrc
  4721     04C7  0C45               	rrf	??_LCD_write_data,w
  4722     04C8  3901               	andlw	1
  4723     04C9  00C6               	movwf	??_LCD_write_data+1
  4724     04CA  0EC6               	swapf	??_LCD_write_data+1,f
  4725     04CB  0DC6               	rlf	??_LCD_write_data+1,f
  4726     04CC  0808               	movf	8,w	;volatile
  4727     04CD  0646               	xorwf	??_LCD_write_data+1,w
  4728     04CE  39DF               	andlw	-33
  4729     04CF  0646               	xorwf	??_LCD_write_data+1,w
  4730     04D0  0088               	movwf	8	;volatile
  4731     04D1                     l2199:
  4732                           
  4733                           ;LCD_write_data.c: 26:     PORTDbits.RD4 = (data & 0b00000001) ;
  4734     04D1  0847               	movf	LCD_write_data@data,w
  4735     04D2  3901               	andlw	1
  4736     04D3  00C5               	movwf	??_LCD_write_data
  4737     04D4  0EC5               	swapf	??_LCD_write_data,f
  4738     04D5  0808               	movf	8,w	;volatile
  4739     04D6  0645               	xorwf	??_LCD_write_data,w
  4740     04D7  39EF               	andlw	-17
  4741     04D8  0645               	xorwf	??_LCD_write_data,w
  4742     04D9  0088               	movwf	8	;volatile
  4743     04DA                     l2201:
  4744                           
  4745                           ;LCD_write_data.c: 29:     LCD_pulse_clock();
  4746     04DA  120A  118A  20D0  120A  118A  	fcall	_LCD_pulse_clock
  4747     04DF                     l146:
  4748     04DF  0008               	return
  4749     04E0                     __end_of_LCD_write_data:
  4750                           
  4751                           	psect	text13
  4752     0341                     __ptext13:	
  4753 ;; *************** function _LCD_init *****************
  4754 ;; Defined at:
  4755 ;;		line 18 in file "LCD_init.c"
  4756 ;; Parameters:    Size  Location     Type
  4757 ;;		None
  4758 ;; Auto vars:     Size  Location     Type
  4759 ;;		None
  4760 ;; Return value:  Size  Location     Type
  4761 ;;                  1    wreg      void 
  4762 ;; Registers used:
  4763 ;;		wreg, status,2, status,0, pclath, cstack
  4764 ;; Tracked objects:
  4765 ;;		On entry : 0/0
  4766 ;;		On exit  : 0/0
  4767 ;;		Unchanged: 0/0
  4768 ;; Data sizes:     COMMON   BANK0   BANK1   BANK3   BANK2
  4769 ;;      Params:         0       0       0       0       0
  4770 ;;      Locals:         0       0       0       0       0
  4771 ;;      Temps:          0       2       0       0       0
  4772 ;;      Totals:         0       2       0       0       0
  4773 ;;Total ram usage:        2 bytes
  4774 ;; Hardware stack levels used: 1
  4775 ;; Hardware stack levels required when called: 5
  4776 ;; This function calls:
  4777 ;;		_LCD_clear
  4778 ;;		_LCD_pulse_clock
  4779 ;;		_LCD_write_command
  4780 ;; This function is called by:
  4781 ;;		_main
  4782 ;; This function uses a non-reentrant model
  4783 ;;
  4784                           
  4785     0341                     _LCD_init:	
  4786                           ;psect for function _LCD_init
  4787                           
  4788     0341                     l2381:	
  4789                           ;incstack = 0
  4790                           ; Regs used in _LCD_init: [wreg+status,2+status,0+pclath+cstack]
  4791                           
  4792                           
  4793                           ;LCD_init.c: 21:     TRISDbits.TRISD2 = 0; PORTDbits.RD2 = 0;
  4794     0341  1683               	bsf	3,5	;RP0=1, select bank1
  4795     0342  1303               	bcf	3,6	;RP1=0, select bank1
  4796     0343  1108               	bcf	8,2	;volatile
  4797     0344  1283               	bcf	3,5	;RP0=0, select bank0
  4798     0345  1303               	bcf	3,6	;RP1=0, select bank0
  4799     0346  1108               	bcf	8,2	;volatile
  4800                           
  4801                           ;LCD_init.c: 22:     TRISDbits.TRISD3 = 0; PORTDbits.RD3 = 0;
  4802     0347  1683               	bsf	3,5	;RP0=1, select bank1
  4803     0348  1303               	bcf	3,6	;RP1=0, select bank1
  4804     0349  1188               	bcf	8,3	;volatile
  4805     034A  1283               	bcf	3,5	;RP0=0, select bank0
  4806     034B  1303               	bcf	3,6	;RP1=0, select bank0
  4807     034C  1188               	bcf	8,3	;volatile
  4808                           
  4809                           ;LCD_init.c: 23:     TRISDbits.TRISD4 = 0; PORTDbits.RD4 = 0;
  4810     034D  1683               	bsf	3,5	;RP0=1, select bank1
  4811     034E  1303               	bcf	3,6	;RP1=0, select bank1
  4812     034F  1208               	bcf	8,4	;volatile
  4813     0350  1283               	bcf	3,5	;RP0=0, select bank0
  4814     0351  1303               	bcf	3,6	;RP1=0, select bank0
  4815     0352  1208               	bcf	8,4	;volatile
  4816                           
  4817                           ;LCD_init.c: 24:     TRISDbits.TRISD5 = 0; PORTDbits.RD5 = 0;
  4818     0353  1683               	bsf	3,5	;RP0=1, select bank1
  4819     0354  1303               	bcf	3,6	;RP1=0, select bank1
  4820     0355  1288               	bcf	8,5	;volatile
  4821     0356  1283               	bcf	3,5	;RP0=0, select bank0
  4822     0357  1303               	bcf	3,6	;RP1=0, select bank0
  4823     0358  1288               	bcf	8,5	;volatile
  4824                           
  4825                           ;LCD_init.c: 25:     TRISDbits.TRISD6 = 0; PORTDbits.RD6 = 0;
  4826     0359  1683               	bsf	3,5	;RP0=1, select bank1
  4827     035A  1303               	bcf	3,6	;RP1=0, select bank1
  4828     035B  1308               	bcf	8,6	;volatile
  4829     035C  1283               	bcf	3,5	;RP0=0, select bank0
  4830     035D  1303               	bcf	3,6	;RP1=0, select bank0
  4831     035E  1308               	bcf	8,6	;volatile
  4832                           
  4833                           ;LCD_init.c: 26:     TRISDbits.TRISD7 = 0; PORTDbits.RD7 = 0;
  4834     035F  1683               	bsf	3,5	;RP0=1, select bank1
  4835     0360  1303               	bcf	3,6	;RP1=0, select bank1
  4836     0361  1388               	bcf	8,7	;volatile
  4837     0362  1283               	bcf	3,5	;RP0=0, select bank0
  4838     0363  1303               	bcf	3,6	;RP1=0, select bank0
  4839     0364  1388               	bcf	8,7	;volatile
  4840     0365                     l2383:
  4841                           
  4842                           ;LCD_init.c: 33:     _delay((unsigned long)((60)*(4000000/4000.0)));
  4843     0365  304E               	movlw	78
  4844     0366  1283               	bcf	3,5	;RP0=0, select bank0
  4845     0367  1303               	bcf	3,6	;RP1=0, select bank0
  4846     0368  00CA               	movwf	??_LCD_init+1
  4847     0369  30EA               	movlw	234
  4848     036A  00C9               	movwf	??_LCD_init
  4849     036B                     u2817:
  4850     036B  0BC9               	decfsz	??_LCD_init,f
  4851     036C  2B6B               	goto	u2817
  4852     036D  0BCA               	decfsz	??_LCD_init+1,f
  4853     036E  2B6B               	goto	u2817
  4854     036F  0000               	nop
  4855     0370                     l2385:
  4856                           
  4857                           ;LCD_init.c: 36:     PORTDbits.RD7 = 0; PORTDbits.RD6 = 0; PORTDbits.RD5 = 1; PORTDbits.
      +                          RD4 = 1;
  4858     0370  1283               	bcf	3,5	;RP0=0, select bank0
  4859     0371  1303               	bcf	3,6	;RP1=0, select bank0
  4860     0372  1388               	bcf	8,7	;volatile
  4861     0373                     l2387:
  4862     0373  1308               	bcf	8,6	;volatile
  4863     0374                     l2389:
  4864     0374  1688               	bsf	8,5	;volatile
  4865     0375                     l2391:
  4866     0375  1608               	bsf	8,4	;volatile
  4867     0376                     l2393:
  4868                           
  4869                           ;LCD_init.c: 39:     LCD_pulse_clock();
  4870     0376  120A  118A  20D0  120A  118A  	fcall	_LCD_pulse_clock
  4871     037B                     l2395:
  4872                           
  4873                           ;LCD_init.c: 42:     _delay((unsigned long)((6)*(4000000/4000.0)));
  4874     037B  3008               	movlw	8
  4875     037C  1283               	bcf	3,5	;RP0=0, select bank0
  4876     037D  1303               	bcf	3,6	;RP1=0, select bank0
  4877     037E  00CA               	movwf	??_LCD_init+1
  4878     037F  30C9               	movlw	201
  4879     0380  00C9               	movwf	??_LCD_init
  4880     0381                     u2827:
  4881     0381  0BC9               	decfsz	??_LCD_init,f
  4882     0382  2B81               	goto	u2827
  4883     0383  0BCA               	decfsz	??_LCD_init+1,f
  4884     0384  2B81               	goto	u2827
  4885                           
  4886                           ;LCD_init.c: 45:     LCD_pulse_clock();
  4887     0385  120A  118A  20D0  120A  118A  	fcall	_LCD_pulse_clock
  4888     038A                     l2397:
  4889                           
  4890                           ;LCD_init.c: 48:     _delay((unsigned long)((150)*(4000000/4000000.0)));
  4891     038A  3031               	movlw	49
  4892     038B  1283               	bcf	3,5	;RP0=0, select bank0
  4893     038C  1303               	bcf	3,6	;RP1=0, select bank0
  4894     038D  00C9               	movwf	??_LCD_init
  4895     038E                     u2837:
  4896     038E  0BC9               	decfsz	??_LCD_init,f
  4897     038F  2B8E               	goto	u2837
  4898     0390                     l2399:
  4899                           
  4900                           ;LCD_init.c: 51:     LCD_pulse_clock();
  4901     0390  120A  118A  20D0  120A  118A  	fcall	_LCD_pulse_clock
  4902     0395                     l2401:
  4903                           
  4904                           ;LCD_init.c: 54:     PORTDbits.RD7 = 0; PORTDbits.RD6 = 0; PORTDbits.RD5 = 1; PORTDbits.
      +                          RD4 = 0;
  4905     0395  1283               	bcf	3,5	;RP0=0, select bank0
  4906     0396  1303               	bcf	3,6	;RP1=0, select bank0
  4907     0397  1388               	bcf	8,7	;volatile
  4908     0398                     l2403:
  4909     0398  1308               	bcf	8,6	;volatile
  4910     0399                     l2405:
  4911     0399  1688               	bsf	8,5	;volatile
  4912     039A                     l2407:
  4913     039A  1208               	bcf	8,4	;volatile
  4914     039B                     l2409:
  4915                           
  4916                           ;LCD_init.c: 57:     LCD_pulse_clock();
  4917     039B  120A  118A  20D0  120A  118A  	fcall	_LCD_pulse_clock
  4918     03A0                     l2411:
  4919                           
  4920                           ;LCD_init.c: 60:     LCD_write_command(0x28);
  4921     03A0  3028               	movlw	40
  4922     03A1  120A  118A  23B8  120A  118A  	fcall	_LCD_write_command
  4923     03A6                     l2413:
  4924                           
  4925                           ;LCD_init.c: 61:     LCD_write_command(LCD_display_control);
  4926     03A6  0878               	movf	_LCD_display_control,w
  4927     03A7  120A  118A  23B8  120A  118A  	fcall	_LCD_write_command
  4928     03AC                     l2415:
  4929                           
  4930                           ;LCD_init.c: 62:     LCD_write_command(LCD_entry_mode);
  4931     03AC  0879               	movf	_LCD_entry_mode,w
  4932     03AD  120A  118A  23B8  120A  118A  	fcall	_LCD_write_command
  4933     03B2                     l2417:
  4934                           
  4935                           ;LCD_init.c: 63:     LCD_clear();
  4936     03B2  120A  118A  2106  120A  118A  	fcall	_LCD_clear
  4937     03B7                     l103:
  4938     03B7  0008               	return
  4939     03B8                     __end_of_LCD_init:
  4940                           
  4941                           	psect	text14
  4942     0106                     __ptext14:	
  4943 ;; *************** function _LCD_clear *****************
  4944 ;; Defined at:
  4945 ;;		line 7 in file "LCD_clear.c"
  4946 ;; Parameters:    Size  Location     Type
  4947 ;;		None
  4948 ;; Auto vars:     Size  Location     Type
  4949 ;;		None
  4950 ;; Return value:  Size  Location     Type
  4951 ;;                  1    wreg      void 
  4952 ;; Registers used:
  4953 ;;		wreg, status,2, status,0, pclath, cstack
  4954 ;; Tracked objects:
  4955 ;;		On entry : 0/0
  4956 ;;		On exit  : 0/0
  4957 ;;		Unchanged: 0/0
  4958 ;; Data sizes:     COMMON   BANK0   BANK1   BANK3   BANK2
  4959 ;;      Params:         0       0       0       0       0
  4960 ;;      Locals:         0       0       0       0       0
  4961 ;;      Temps:          0       1       0       0       0
  4962 ;;      Totals:         0       1       0       0       0
  4963 ;;Total ram usage:        1 bytes
  4964 ;; Hardware stack levels used: 1
  4965 ;; Hardware stack levels required when called: 4
  4966 ;; This function calls:
  4967 ;;		_LCD_write_command
  4968 ;; This function is called by:
  4969 ;;		_LCD_init
  4970 ;;		_main
  4971 ;; This function uses a non-reentrant model
  4972 ;;
  4973                           
  4974     0106                     _LCD_clear:	
  4975                           ;psect for function _LCD_clear
  4976                           
  4977     0106                     l2203:	
  4978                           ;incstack = 0
  4979                           ; Regs used in _LCD_clear: [wreg+status,2+status,0+pclath+cstack]
  4980                           
  4981                           
  4982                           ;LCD_clear.c: 10:     LCD_write_command(0x01);
  4983     0106  3001               	movlw	1
  4984     0107  120A  118A  23B8  120A  118A  	fcall	_LCD_write_command
  4985     010C                     l2205:
  4986                           
  4987                           ;LCD_clear.c: 13:     _delay((unsigned long)(((1600 - 40))*(4000000/4000000.0)));
  4988     010C  30DE               	movlw	222
  4989     010D  1283               	bcf	3,5	;RP0=0, select bank0
  4990     010E  1303               	bcf	3,6	;RP1=0, select bank0
  4991     010F  00C8               	movwf	??_LCD_clear
  4992     0110                     u2847:
  4993     0110  2911               	nop2
  4994     0111  2912               	nop2
  4995     0112  0BC8               	decfsz	??_LCD_clear,f
  4996     0113  2910               	goto	u2847
  4997     0114  2915               	nop2
  4998     0115  0000               	nop
  4999     0116                     l2207:
  5000                           
  5001                           ;LCD_clear.c: 16:     LCD_write_command(LCD_entry_mode);
  5002     0116  0879               	movf	_LCD_entry_mode,w
  5003     0117  120A  118A  23B8  120A  118A  	fcall	_LCD_write_command
  5004     011C                     l20:
  5005     011C  0008               	return
  5006     011D                     __end_of_LCD_clear:
  5007                           
  5008                           	psect	text15
  5009     01ED                     __ptext15:	
  5010 ;; *************** function _LCD_cursor_set *****************
  5011 ;; Defined at:
  5012 ;;		line 9 in file "LCD_cursor_set.c"
  5013 ;; Parameters:    Size  Location     Type
  5014 ;;  row             1    wreg     unsigned char 
  5015 ;;  column          1    4[BANK0 ] unsigned char 
  5016 ;; Auto vars:     Size  Location     Type
  5017 ;;  row             1    5[BANK0 ] unsigned char 
  5018 ;; Return value:  Size  Location     Type
  5019 ;;                  1    wreg      void 
  5020 ;; Registers used:
  5021 ;;		wreg, status,2, status,0, btemp+1, pclath, cstack
  5022 ;; Tracked objects:
  5023 ;;		On entry : 0/0
  5024 ;;		On exit  : 0/0
  5025 ;;		Unchanged: 0/0
  5026 ;; Data sizes:     COMMON   BANK0   BANK1   BANK3   BANK2
  5027 ;;      Params:         0       1       0       0       0
  5028 ;;      Locals:         0       1       0       0       0
  5029 ;;      Temps:          0       0       0       0       0
  5030 ;;      Totals:         0       2       0       0       0
  5031 ;;Total ram usage:        2 bytes
  5032 ;; Hardware stack levels used: 1
  5033 ;; Hardware stack levels required when called: 4
  5034 ;; This function calls:
  5035 ;;		_LCD_write_command
  5036 ;; This function is called by:
  5037 ;;		_main
  5038 ;;		_LCD_add_character
  5039 ;; This function uses a non-reentrant model
  5040 ;;
  5041                           
  5042     01ED                     _LCD_cursor_set:	
  5043                           ;psect for function _LCD_cursor_set
  5044                           
  5045                           
  5046                           ;incstack = 0
  5047                           ; Regs used in _LCD_cursor_set: [wreg+status,2+status,0+btemp+1+pclath+cstack]
  5048                           ;LCD_cursor_set@row stored from wreg
  5049     01ED  1283               	bcf	3,5	;RP0=0, select bank0
  5050     01EE  1303               	bcf	3,6	;RP1=0, select bank0
  5051     01EF  00C9               	movwf	LCD_cursor_set@row
  5052     01F0                     l2363:
  5053                           
  5054                           ;LCD_cursor_set.c: 12:     if(row == 1) column += (0x80 - 1);
  5055     01F0  0349               	decf	LCD_cursor_set@row,w
  5056     01F1  1D03               	btfss	3,2
  5057     01F2  29F4               	goto	u2311
  5058     01F3  29F5               	goto	u2310
  5059     01F4                     u2311:
  5060     01F4  29F9               	goto	l2367
  5061     01F5                     u2310:
  5062     01F5                     l2365:
  5063     01F5  307F               	movlw	127
  5064     01F6  00FF               	movwf	btemp+1
  5065     01F7  087F               	movf	btemp+1,w
  5066     01F8  07C8               	addwf	LCD_cursor_set@column,f
  5067     01F9                     l2367:
  5068                           
  5069                           ;LCD_cursor_set.c: 13:     if(row == 2) column += (0xC0 - 1);
  5070     01F9  3002               	movlw	2
  5071     01FA  0649               	xorwf	LCD_cursor_set@row,w
  5072     01FB  1D03               	btfss	3,2
  5073     01FC  29FE               	goto	u2321
  5074     01FD  29FF               	goto	u2320
  5075     01FE                     u2321:
  5076     01FE  2A03               	goto	l2371
  5077     01FF                     u2320:
  5078     01FF                     l2369:
  5079     01FF  30BF               	movlw	191
  5080     0200  00FF               	movwf	btemp+1
  5081     0201  087F               	movf	btemp+1,w
  5082     0202  07C8               	addwf	LCD_cursor_set@column,f
  5083     0203                     l2371:
  5084                           
  5085                           ;LCD_cursor_set.c: 14:     if(row == 3) column += (0x80 + 19);
  5086     0203  3003               	movlw	3
  5087     0204  0649               	xorwf	LCD_cursor_set@row,w
  5088     0205  1D03               	btfss	3,2
  5089     0206  2A08               	goto	u2331
  5090     0207  2A09               	goto	u2330
  5091     0208                     u2331:
  5092     0208  2A0D               	goto	l2375
  5093     0209                     u2330:
  5094     0209                     l2373:
  5095     0209  3093               	movlw	147
  5096     020A  00FF               	movwf	btemp+1
  5097     020B  087F               	movf	btemp+1,w
  5098     020C  07C8               	addwf	LCD_cursor_set@column,f
  5099     020D                     l2375:
  5100                           
  5101                           ;LCD_cursor_set.c: 15:     if(row == 4) column += (0xC0 + 19);
  5102     020D  3004               	movlw	4
  5103     020E  0649               	xorwf	LCD_cursor_set@row,w
  5104     020F  1D03               	btfss	3,2
  5105     0210  2A12               	goto	u2341
  5106     0211  2A13               	goto	u2340
  5107     0212                     u2341:
  5108     0212  2A17               	goto	l2379
  5109     0213                     u2340:
  5110     0213                     l2377:
  5111     0213  30D3               	movlw	211
  5112     0214  00FF               	movwf	btemp+1
  5113     0215  087F               	movf	btemp+1,w
  5114     0216  07C8               	addwf	LCD_cursor_set@column,f
  5115     0217                     l2379:
  5116                           
  5117                           ;LCD_cursor_set.c: 18:    LCD_write_command(column);
  5118     0217  0848               	movf	LCD_cursor_set@column,w
  5119     0218  120A  118A  23B8  120A  118A  	fcall	_LCD_write_command
  5120     021D                     l84:
  5121     021D  0008               	return
  5122     021E                     __end_of_LCD_cursor_set:
  5123                           
  5124                           	psect	text16
  5125     03B8                     __ptext16:	
  5126 ;; *************** function _LCD_write_command *****************
  5127 ;; Defined at:
  5128 ;;		line 9 in file "LCD_write_command.c"
  5129 ;; Parameters:    Size  Location     Type
  5130 ;;  command         1    wreg     unsigned char 
  5131 ;; Auto vars:     Size  Location     Type
  5132 ;;  command         1    3[BANK0 ] unsigned char 
  5133 ;; Return value:  Size  Location     Type
  5134 ;;                  1    wreg      void 
  5135 ;; Registers used:
  5136 ;;		wreg, status,2, status,0, pclath, cstack
  5137 ;; Tracked objects:
  5138 ;;		On entry : 0/0
  5139 ;;		On exit  : 0/0
  5140 ;;		Unchanged: 0/0
  5141 ;; Data sizes:     COMMON   BANK0   BANK1   BANK3   BANK2
  5142 ;;      Params:         0       0       0       0       0
  5143 ;;      Locals:         0       1       0       0       0
  5144 ;;      Temps:          0       2       0       0       0
  5145 ;;      Totals:         0       3       0       0       0
  5146 ;;Total ram usage:        3 bytes
  5147 ;; Hardware stack levels used: 1
  5148 ;; Hardware stack levels required when called: 3
  5149 ;; This function calls:
  5150 ;;		_LCD_pulse_clock
  5151 ;; This function is called by:
  5152 ;;		_LCD_clear
  5153 ;;		_LCD_cursor_set
  5154 ;;		_LCD_init
  5155 ;;		_LCD_add_character
  5156 ;;		_LCD_configure_cursor_blink
  5157 ;;		_LCD_configure_cursor_display
  5158 ;;		_LCD_configure_entry_id
  5159 ;;		_LCD_configure_entry_shift
  5160 ;;		_LCD_configure_lcd_display
  5161 ;;		_LCD_cursor_decrement
  5162 ;;		_LCD_cursor_increment
  5163 ;;		_LCD_shift_left
  5164 ;;		_LCD_shift_reset
  5165 ;;		_LCD_shift_right
  5166 ;; This function uses a non-reentrant model
  5167 ;;
  5168                           
  5169     03B8                     _LCD_write_command:	
  5170                           ;psect for function _LCD_write_command
  5171                           
  5172                           
  5173                           ;incstack = 0
  5174                           ; Regs used in _LCD_write_command: [wreg+status,2+status,0+pclath+cstack]
  5175                           ;LCD_write_command@command stored from wreg
  5176     03B8  1283               	bcf	3,5	;RP0=0, select bank0
  5177     03B9  1303               	bcf	3,6	;RP1=0, select bank0
  5178     03BA  00C7               	movwf	LCD_write_command@command
  5179     03BB                     l2167:
  5180                           
  5181                           ;LCD_write_command.c: 11:     PORTDbits.RD2 = 0;
  5182     03BB  1108               	bcf	8,2	;volatile
  5183     03BC                     l2169:
  5184                           
  5185                           ;LCD_write_command.c: 14:     PORTDbits.RD7 = (command & 0b10000000) >> 7;
  5186     03BC  0847               	movf	LCD_write_command@command,w
  5187     03BD  00C5               	movwf	??_LCD_write_command
  5188     03BE  3007               	movlw	7
  5189     03BF                     u1775:
  5190     03BF  1003               	clrc
  5191     03C0  0CC5               	rrf	??_LCD_write_command,f
  5192     03C1  3EFF               	addlw	-1
  5193     03C2  1D03               	skipz
  5194     03C3  2BBF               	goto	u1775
  5195     03C4  0845               	movf	??_LCD_write_command,w
  5196     03C5  3901               	andlw	1
  5197     03C6  00C6               	movwf	??_LCD_write_command+1
  5198     03C7  0CC6               	rrf	??_LCD_write_command+1,f
  5199     03C8  0CC6               	rrf	??_LCD_write_command+1,f
  5200     03C9  0808               	movf	8,w	;volatile
  5201     03CA  0646               	xorwf	??_LCD_write_command+1,w
  5202     03CB  397F               	andlw	-129
  5203     03CC  0646               	xorwf	??_LCD_write_command+1,w
  5204     03CD  0088               	movwf	8	;volatile
  5205                           
  5206                           ;LCD_write_command.c: 15:     PORTDbits.RD6 = (command & 0b01000000) >> 6;
  5207     03CE  0847               	movf	LCD_write_command@command,w
  5208     03CF  00C5               	movwf	??_LCD_write_command
  5209     03D0  3006               	movlw	6
  5210     03D1                     u1785:
  5211     03D1  1003               	clrc
  5212     03D2  0CC5               	rrf	??_LCD_write_command,f
  5213     03D3  3EFF               	addlw	-1
  5214     03D4  1D03               	skipz
  5215     03D5  2BD1               	goto	u1785
  5216     03D6  0845               	movf	??_LCD_write_command,w
  5217     03D7  3901               	andlw	1
  5218     03D8  00C6               	movwf	??_LCD_write_command+1
  5219     03D9  0EC6               	swapf	??_LCD_write_command+1,f
  5220     03DA  0DC6               	rlf	??_LCD_write_command+1,f
  5221     03DB  0DC6               	rlf	??_LCD_write_command+1,f
  5222     03DC  0808               	movf	8,w	;volatile
  5223     03DD  0646               	xorwf	??_LCD_write_command+1,w
  5224     03DE  39BF               	andlw	-65
  5225     03DF  0646               	xorwf	??_LCD_write_command+1,w
  5226     03E0  0088               	movwf	8	;volatile
  5227                           
  5228                           ;LCD_write_command.c: 16:     PORTDbits.RD5 = (command & 0b00100000) >> 5;
  5229     03E1  0847               	movf	LCD_write_command@command,w
  5230     03E2  00C5               	movwf	??_LCD_write_command
  5231     03E3  3005               	movlw	5
  5232     03E4                     u1795:
  5233     03E4  1003               	clrc
  5234     03E5  0CC5               	rrf	??_LCD_write_command,f
  5235     03E6  3EFF               	addlw	-1
  5236     03E7  1D03               	skipz
  5237     03E8  2BE4               	goto	u1795
  5238     03E9  0845               	movf	??_LCD_write_command,w
  5239     03EA  3901               	andlw	1
  5240     03EB  00C6               	movwf	??_LCD_write_command+1
  5241     03EC  0EC6               	swapf	??_LCD_write_command+1,f
  5242     03ED  0DC6               	rlf	??_LCD_write_command+1,f
  5243     03EE  0808               	movf	8,w	;volatile
  5244     03EF  0646               	xorwf	??_LCD_write_command+1,w
  5245     03F0  39DF               	andlw	-33
  5246     03F1  0646               	xorwf	??_LCD_write_command+1,w
  5247     03F2  0088               	movwf	8	;volatile
  5248                           
  5249                           ;LCD_write_command.c: 17:     PORTDbits.RD4 = (command & 0b00010000) >> 4;
  5250     03F3  0847               	movf	LCD_write_command@command,w
  5251     03F4  00C5               	movwf	??_LCD_write_command
  5252     03F5  3004               	movlw	4
  5253     03F6                     u1805:
  5254     03F6  1003               	clrc
  5255     03F7  0CC5               	rrf	??_LCD_write_command,f
  5256     03F8  3EFF               	addlw	-1
  5257     03F9  1D03               	skipz
  5258     03FA  2BF6               	goto	u1805
  5259     03FB  0845               	movf	??_LCD_write_command,w
  5260     03FC  3901               	andlw	1
  5261     03FD  00C6               	movwf	??_LCD_write_command+1
  5262     03FE  0EC6               	swapf	??_LCD_write_command+1,f
  5263     03FF  0808               	movf	8,w	;volatile
  5264     0400  0646               	xorwf	??_LCD_write_command+1,w
  5265     0401  39EF               	andlw	-17
  5266     0402  0646               	xorwf	??_LCD_write_command+1,w
  5267     0403  0088               	movwf	8	;volatile
  5268     0404                     l2171:
  5269                           
  5270                           ;LCD_write_command.c: 20:     LCD_pulse_clock();
  5271     0404  120A  118A  20D0  120A  118A  	fcall	_LCD_pulse_clock
  5272     0409                     l2173:
  5273                           
  5274                           ;LCD_write_command.c: 23:     PORTDbits.RD7 = (command & 0b00001000) >> 3;
  5275     0409  1283               	bcf	3,5	;RP0=0, select bank0
  5276     040A  1303               	bcf	3,6	;RP1=0, select bank0
  5277     040B  0847               	movf	LCD_write_command@command,w
  5278     040C  00C5               	movwf	??_LCD_write_command
  5279     040D  3003               	movlw	3
  5280     040E                     u1815:
  5281     040E  1003               	clrc
  5282     040F  0CC5               	rrf	??_LCD_write_command,f
  5283     0410  3EFF               	addlw	-1
  5284     0411  1D03               	skipz
  5285     0412  2C0E               	goto	u1815
  5286     0413  0845               	movf	??_LCD_write_command,w
  5287     0414  3901               	andlw	1
  5288     0415  00C6               	movwf	??_LCD_write_command+1
  5289     0416  0CC6               	rrf	??_LCD_write_command+1,f
  5290     0417  0CC6               	rrf	??_LCD_write_command+1,f
  5291     0418  0808               	movf	8,w	;volatile
  5292     0419  0646               	xorwf	??_LCD_write_command+1,w
  5293     041A  397F               	andlw	-129
  5294     041B  0646               	xorwf	??_LCD_write_command+1,w
  5295     041C  0088               	movwf	8	;volatile
  5296     041D                     l2175:
  5297                           
  5298                           ;LCD_write_command.c: 24:     PORTDbits.RD6 = (command & 0b00000100) >> 2;
  5299     041D  0847               	movf	LCD_write_command@command,w
  5300     041E  00C5               	movwf	??_LCD_write_command
  5301     041F  3002               	movlw	2
  5302     0420                     u1825:
  5303     0420  1003               	clrc
  5304     0421  0CC5               	rrf	??_LCD_write_command,f
  5305     0422  3EFF               	addlw	-1
  5306     0423  1D03               	skipz
  5307     0424  2C20               	goto	u1825
  5308     0425  0845               	movf	??_LCD_write_command,w
  5309     0426  3901               	andlw	1
  5310     0427  00C6               	movwf	??_LCD_write_command+1
  5311     0428  0EC6               	swapf	??_LCD_write_command+1,f
  5312     0429  0DC6               	rlf	??_LCD_write_command+1,f
  5313     042A  0DC6               	rlf	??_LCD_write_command+1,f
  5314     042B  0808               	movf	8,w	;volatile
  5315     042C  0646               	xorwf	??_LCD_write_command+1,w
  5316     042D  39BF               	andlw	-65
  5317     042E  0646               	xorwf	??_LCD_write_command+1,w
  5318     042F  0088               	movwf	8	;volatile
  5319     0430                     l2177:
  5320                           
  5321                           ;LCD_write_command.c: 25:     PORTDbits.RD5 = (command & 0b00000010) >> 1;
  5322     0430  0847               	movf	LCD_write_command@command,w
  5323     0431  00C5               	movwf	??_LCD_write_command
  5324     0432  1003               	clrc
  5325     0433  0C45               	rrf	??_LCD_write_command,w
  5326     0434  3901               	andlw	1
  5327     0435  00C6               	movwf	??_LCD_write_command+1
  5328     0436  0EC6               	swapf	??_LCD_write_command+1,f
  5329     0437  0DC6               	rlf	??_LCD_write_command+1,f
  5330     0438  0808               	movf	8,w	;volatile
  5331     0439  0646               	xorwf	??_LCD_write_command+1,w
  5332     043A  39DF               	andlw	-33
  5333     043B  0646               	xorwf	??_LCD_write_command+1,w
  5334     043C  0088               	movwf	8	;volatile
  5335     043D                     l2179:
  5336                           
  5337                           ;LCD_write_command.c: 26:     PORTDbits.RD4 = (command & 0b00000001) ;
  5338     043D  0847               	movf	LCD_write_command@command,w
  5339     043E  3901               	andlw	1
  5340     043F  00C5               	movwf	??_LCD_write_command
  5341     0440  0EC5               	swapf	??_LCD_write_command,f
  5342     0441  0808               	movf	8,w	;volatile
  5343     0442  0645               	xorwf	??_LCD_write_command,w
  5344     0443  39EF               	andlw	-17
  5345     0444  0645               	xorwf	??_LCD_write_command,w
  5346     0445  0088               	movwf	8	;volatile
  5347     0446                     l2181:
  5348                           
  5349                           ;LCD_write_command.c: 29:     LCD_pulse_clock();
  5350     0446  120A  118A  20D0  120A  118A  	fcall	_LCD_pulse_clock
  5351     044B                     l139:
  5352     044B  0008               	return
  5353     044C                     __end_of_LCD_write_command:
  5354                           
  5355                           	psect	text17
  5356     00D0                     __ptext17:	
  5357 ;; *************** function _LCD_pulse_clock *****************
  5358 ;; Defined at:
  5359 ;;		line 8 in file "LCD_pulse_clock.c"
  5360 ;; Parameters:    Size  Location     Type
  5361 ;;		None
  5362 ;; Auto vars:     Size  Location     Type
  5363 ;;		None
  5364 ;; Return value:  Size  Location     Type
  5365 ;;                  1    wreg      void 
  5366 ;; Registers used:
  5367 ;;		wreg
  5368 ;; Tracked objects:
  5369 ;;		On entry : 0/0
  5370 ;;		On exit  : 0/0
  5371 ;;		Unchanged: 0/0
  5372 ;; Data sizes:     COMMON   BANK0   BANK1   BANK3   BANK2
  5373 ;;      Params:         0       0       0       0       0
  5374 ;;      Locals:         0       0       0       0       0
  5375 ;;      Temps:          0       1       0       0       0
  5376 ;;      Totals:         0       1       0       0       0
  5377 ;;Total ram usage:        1 bytes
  5378 ;; Hardware stack levels used: 1
  5379 ;; Hardware stack levels required when called: 2
  5380 ;; This function calls:
  5381 ;;		Nothing
  5382 ;; This function is called by:
  5383 ;;		_LCD_init
  5384 ;;		_LCD_write_command
  5385 ;;		_LCD_write_data
  5386 ;; This function uses a non-reentrant model
  5387 ;;
  5388                           
  5389     00D0                     _LCD_pulse_clock:	
  5390                           ;psect for function _LCD_pulse_clock
  5391                           
  5392     00D0                     l2161:	
  5393                           ;incstack = 0
  5394                           ; Regs used in _LCD_pulse_clock: [wreg]
  5395                           
  5396                           
  5397                           ;LCD_pulse_clock.c: 10:   PORTDbits.RD3 = 1;
  5398     00D0  1283               	bcf	3,5	;RP0=0, select bank0
  5399     00D1  1303               	bcf	3,6	;RP1=0, select bank0
  5400     00D2  1588               	bsf	8,3	;volatile
  5401     00D3                     l2163:
  5402                           
  5403                           ;LCD_pulse_clock.c: 11:   _delay((unsigned long)((40)*(4000000/4000000.0)));
  5404     00D3  300C               	movlw	12
  5405     00D4  1283               	bcf	3,5	;RP0=0, select bank0
  5406     00D5  1303               	bcf	3,6	;RP1=0, select bank0
  5407     00D6  00C4               	movwf	??_LCD_pulse_clock
  5408     00D7                     u2857:
  5409     00D7  0BC4               	decfsz	??_LCD_pulse_clock,f
  5410     00D8  28D7               	goto	u2857
  5411     00D9  0000               	nop
  5412     00DA                     l2165:
  5413                           
  5414                           ;LCD_pulse_clock.c: 12:   PORTDbits.RD3 = 0;
  5415     00DA  1283               	bcf	3,5	;RP0=0, select bank0
  5416     00DB  1303               	bcf	3,6	;RP1=0, select bank0
  5417     00DC  1188               	bcf	8,3	;volatile
  5418     00DD                     l110:
  5419     00DD  0008               	return
  5420     00DE                     __end_of_LCD_pulse_clock:
  5421                           
  5422                           	psect	text18
  5423     0134                     __ptext18:	
  5424 ;; *************** function _InitUART *****************
  5425 ;; Defined at:
  5426 ;;		line 10 in file "esp8266.c"
  5427 ;; Parameters:    Size  Location     Type
  5428 ;;		None
  5429 ;; Auto vars:     Size  Location     Type
  5430 ;;		None
  5431 ;; Return value:  Size  Location     Type
  5432 ;;                  1    wreg      void 
  5433 ;; Registers used:
  5434 ;;		status,2
  5435 ;; Tracked objects:
  5436 ;;		On entry : 0/0
  5437 ;;		On exit  : 0/0
  5438 ;;		Unchanged: 0/0
  5439 ;; Data sizes:     COMMON   BANK0   BANK1   BANK3   BANK2
  5440 ;;      Params:         0       0       0       0       0
  5441 ;;      Locals:         0       0       0       0       0
  5442 ;;      Temps:          0       0       0       0       0
  5443 ;;      Totals:         0       0       0       0       0
  5444 ;;Total ram usage:        0 bytes
  5445 ;; Hardware stack levels used: 1
  5446 ;; Hardware stack levels required when called: 2
  5447 ;; This function calls:
  5448 ;;		Nothing
  5449 ;; This function is called by:
  5450 ;;		_main
  5451 ;; This function uses a non-reentrant model
  5452 ;;
  5453                           
  5454     0134                     _InitUART:	
  5455                           ;psect for function _InitUART
  5456                           
  5457     0134                     l2435:	
  5458                           ;incstack = 0
  5459                           ; Regs used in _InitUART: [status,2]
  5460                           
  5461                           
  5462                           ;esp8266.c: 13:     TRISC6 = 0;
  5463     0134  1683               	bsf	3,5	;RP0=1, select bank1
  5464     0135  1303               	bcf	3,6	;RP1=0, select bank1
  5465     0136  1307               	bcf	7,6	;volatile
  5466                           
  5467                           ;esp8266.c: 14:     TRISC7 = 1;
  5468     0137  1787               	bsf	7,7	;volatile
  5469                           
  5470                           ;esp8266.c: 16:     TXSTAbits.BRGH = 1;
  5471     0138  1518               	bsf	24,2	;volatile
  5472     0139                     l2437:
  5473                           
  5474                           ;esp8266.c: 17:     SPBRG = 0;
  5475     0139  0199               	clrf	25	;volatile
  5476     013A                     l2439:
  5477                           
  5478                           ;esp8266.c: 19:     TXSTAbits.SYNC = 0;
  5479     013A  1218               	bcf	24,4	;volatile
  5480     013B                     l2441:
  5481                           
  5482                           ;esp8266.c: 20:     RCSTAbits.SPEN = 1;
  5483     013B  1283               	bcf	3,5	;RP0=0, select bank0
  5484     013C  1303               	bcf	3,6	;RP1=0, select bank0
  5485     013D  1798               	bsf	24,7	;volatile
  5486     013E                     l2443:
  5487                           
  5488                           ;esp8266.c: 22:     TXSTAbits.TXEN = 1;
  5489     013E  1683               	bsf	3,5	;RP0=1, select bank1
  5490     013F  1303               	bcf	3,6	;RP1=0, select bank1
  5491     0140  1698               	bsf	24,5	;volatile
  5492     0141                     l2445:
  5493                           
  5494                           ;esp8266.c: 23:     TXSTAbits.TX9 = 0;
  5495     0141  1318               	bcf	24,6	;volatile
  5496     0142                     l2447:
  5497                           
  5498                           ;esp8266.c: 25:     RCSTAbits.CREN = 1;
  5499     0142  1283               	bcf	3,5	;RP0=0, select bank0
  5500     0143  1303               	bcf	3,6	;RP1=0, select bank0
  5501     0144  1618               	bsf	24,4	;volatile
  5502     0145                     l2449:
  5503                           
  5504                           ;esp8266.c: 27:     RCSTAbits.RX9 = 0;
  5505     0145  1318               	bcf	24,6	;volatile
  5506     0146                     l2451:
  5507                           
  5508                           ;esp8266.c: 30:     PIE1bits.RCIE = 1;
  5509     0146  1683               	bsf	3,5	;RP0=1, select bank1
  5510     0147  1303               	bcf	3,6	;RP1=0, select bank1
  5511     0148  168C               	bsf	12,5	;volatile
  5512     0149                     l2453:
  5513                           
  5514                           ;esp8266.c: 31:     PEIE = 1;
  5515     0149  170B               	bsf	11,6	;volatile
  5516     014A                     l2455:
  5517                           
  5518                           ;esp8266.c: 32:     GIE = 1;
  5519     014A  178B               	bsf	11,7	;volatile
  5520     014B                     l295:
  5521     014B  0008               	return
  5522     014C                     __end_of_InitUART:
  5523                           
  5524                           	psect	text19
  5525     00C4                     __ptext19:	
  5526 ;; *************** function _InitKeypad *****************
  5527 ;; Defined at:
  5528 ;;		line 4 in file "KeyPad.c"
  5529 ;; Parameters:    Size  Location     Type
  5530 ;;		None
  5531 ;; Auto vars:     Size  Location     Type
  5532 ;;		None
  5533 ;; Return value:  Size  Location     Type
  5534 ;;                  1    wreg      void 
  5535 ;; Registers used:
  5536 ;;		wreg, status,2, status,0, btemp+1
  5537 ;; Tracked objects:
  5538 ;;		On entry : 0/0
  5539 ;;		On exit  : 0/0
  5540 ;;		Unchanged: 0/0
  5541 ;; Data sizes:     COMMON   BANK0   BANK1   BANK3   BANK2
  5542 ;;      Params:         0       0       0       0       0
  5543 ;;      Locals:         0       0       0       0       0
  5544 ;;      Temps:          0       0       0       0       0
  5545 ;;      Totals:         0       0       0       0       0
  5546 ;;Total ram usage:        0 bytes
  5547 ;; Hardware stack levels used: 1
  5548 ;; Hardware stack levels required when called: 2
  5549 ;; This function calls:
  5550 ;;		Nothing
  5551 ;; This function is called by:
  5552 ;;		_main
  5553 ;; This function uses a non-reentrant model
  5554 ;;
  5555                           
  5556     00C4                     _InitKeypad:	
  5557                           ;psect for function _InitKeypad
  5558                           
  5559     00C4                     l2429:	
  5560                           ;incstack = 0
  5561                           ; Regs used in _InitKeypad: [wreg+status,2+status,0+btemp+1]
  5562                           
  5563                           
  5564                           ;KeyPad.c: 6:  PORTB = 0x00;
  5565     00C4  1283               	bcf	3,5	;RP0=0, select bank0
  5566     00C5  1303               	bcf	3,6	;RP1=0, select bank0
  5567     00C6  0186               	clrf	6	;volatile
  5568     00C7                     l2431:
  5569                           
  5570                           ;KeyPad.c: 7:  TRISB = 0xF0;
  5571     00C7  30F0               	movlw	240
  5572     00C8  1683               	bsf	3,5	;RP0=1, select bank1
  5573     00C9  1303               	bcf	3,6	;RP1=0, select bank1
  5574     00CA  0086               	movwf	6	;volatile
  5575     00CB                     l2433:
  5576                           
  5577                           ;KeyPad.c: 10:  OPTION_REG &= 0x7F;
  5578     00CB  307F               	movlw	127
  5579     00CC  00FF               	movwf	btemp+1
  5580     00CD  087F               	movf	btemp+1,w
  5581     00CE  0581               	andwf	1,f	;volatile
  5582     00CF                     l344:
  5583     00CF  0008               	return
  5584     00D0                     __end_of_InitKeypad:
  5585                           
  5586                           	psect	text20
  5587     021E                     __ptext20:	
  5588 ;; *************** function _ISR *****************
  5589 ;; Defined at:
  5590 ;;		line 151 in file "main.c"
  5591 ;; Parameters:    Size  Location     Type
  5592 ;;		None
  5593 ;; Auto vars:     Size  Location     Type
  5594 ;;		None
  5595 ;; Return value:  Size  Location     Type
  5596 ;;                  1    wreg      void 
  5597 ;; Registers used:
  5598 ;;		wreg, fsr0l, fsr0h, status,2, status,0, btemp+1, pclath, cstack
  5599 ;; Tracked objects:
  5600 ;;		On entry : 0/0
  5601 ;;		On exit  : 0/0
  5602 ;;		Unchanged: 0/0
  5603 ;; Data sizes:     COMMON   BANK0   BANK1   BANK3   BANK2
  5604 ;;      Params:         0       0       0       0       0
  5605 ;;      Locals:         0       0       0       0       0
  5606 ;;      Temps:          4       0       0       0       0
  5607 ;;      Totals:         4       0       0       0       0
  5608 ;;Total ram usage:        4 bytes
  5609 ;; Hardware stack levels used: 1
  5610 ;; Hardware stack levels required when called: 1
  5611 ;; This function calls:
  5612 ;;		_ClearStringReceive
  5613 ;; This function is called by:
  5614 ;;		Interrupt level 1
  5615 ;; This function uses a non-reentrant model
  5616 ;;
  5617                           
  5618     021E                     _ISR:	
  5619                           ;psect for function _ISR
  5620                           
  5621     021E                     i1l1545:
  5622                           
  5623                           ;main.c: 152:     if (PIR1bits.RCIF == 1 && pos < 28) {
  5624     021E  1283               	bcf	3,5	;RP0=0, select bank0
  5625     021F  1303               	bcf	3,6	;RP1=0, select bank0
  5626     0220  1E8C               	btfss	12,5	;volatile
  5627     0221  2A23               	goto	u83_21
  5628     0222  2A24               	goto	u83_20
  5629     0223                     u83_21:
  5630     0223  2A3A               	goto	i1l1555
  5631     0224                     u83_20:
  5632     0224                     i1l1547:
  5633     0224  3000               	movlw	0
  5634     0225  027B               	subwf	_pos+1,w
  5635     0226  301C               	movlw	28
  5636     0227  1903               	skipnz
  5637     0228  027A               	subwf	_pos,w
  5638     0229  1803               	skipnc
  5639     022A  2A2C               	goto	u84_21
  5640     022B  2A2D               	goto	u84_20
  5641     022C                     u84_21:
  5642     022C  2A3A               	goto	i1l1555
  5643     022D                     u84_20:
  5644     022D                     i1l1549:
  5645                           
  5646                           ;main.c: 153:         StringReceive[pos] = RCREG;
  5647     022D  087A               	movf	_pos,w
  5648     022E  3E26               	addlw	(low (_StringReceive| 0))& (0+255)
  5649     022F  0084               	movwf	4
  5650     0230  081A               	movf	26,w	;volatile
  5651     0231  1383               	bcf	3,7	;select IRP bank0
  5652     0232  0080               	movwf	0
  5653     0233                     i1l1551:
  5654                           
  5655                           ;main.c: 154:         pos++;
  5656     0233  3001               	movlw	1
  5657     0234  07FA               	addwf	_pos,f
  5658     0235  1803               	skipnc
  5659     0236  0AFB               	incf	_pos+1,f
  5660     0237  3000               	movlw	0
  5661     0238  07FB               	addwf	_pos+1,f
  5662     0239                     i1l1553:
  5663                           
  5664                           ;main.c: 156:         RCIF = 0;
  5665     0239  128C               	bcf	12,5	;volatile
  5666     023A                     i1l1555:
  5667                           
  5668                           ;main.c: 161:     if(pos > 30){
  5669     023A  3000               	movlw	0
  5670     023B  027B               	subwf	_pos+1,w
  5671     023C  301F               	movlw	31
  5672     023D  1903               	skipnz
  5673     023E  027A               	subwf	_pos,w
  5674     023F  1C03               	skipc
  5675     0240  2A42               	goto	u85_21
  5676     0241  2A43               	goto	u85_20
  5677     0242                     u85_21:
  5678     0242  2A4A               	goto	i1l264
  5679     0243                     u85_20:
  5680     0243                     i1l1557:
  5681                           
  5682                           ;main.c: 162:      ClearStringReceive();
  5683     0243  120A  118A  2165  120A  118A  	fcall	_ClearStringReceive
  5684     0248                     i1l1559:
  5685                           
  5686                           ;main.c: 163:      pos = 0;
  5687     0248  01FA               	clrf	_pos
  5688     0249  01FB               	clrf	_pos+1
  5689     024A                     i1l264:
  5690     024A  0876               	movf	??_ISR+3,w
  5691     024B  00FF               	movwf	btemp+1
  5692     024C  0875               	movf	??_ISR+2,w
  5693     024D  008A               	movwf	10
  5694     024E  0874               	movf	??_ISR+1,w
  5695     024F  0084               	movwf	4
  5696     0250  0E73               	swapf	??_ISR,w
  5697     0251  0083               	movwf	3
  5698     0252  0EFE               	swapf	btemp,f
  5699     0253  0E7E               	swapf	btemp,w
  5700     0254  0009               	retfie
  5701     0255                     __end_of_ISR:
  5702                           
  5703                           	psect	intentry
  5704     0004                     __pintentry:	
  5705                           ;incstack = 0
  5706                           ; Regs used in _ISR: [wreg-fsr0h+status,2+status,0+btemp+1+pclath+cstack]
  5707                           
  5708     0004                     interrupt_function:
  5709     007E                     saved_w	set	btemp
  5710     0004  00FE               	movwf	btemp
  5711     0005  0E03               	swapf	3,w
  5712     0006  00F3               	movwf	??_ISR
  5713     0007  0804               	movf	4,w
  5714     0008  00F4               	movwf	??_ISR+1
  5715     0009  080A               	movf	10,w
  5716     000A  00F5               	movwf	??_ISR+2
  5717     000B  087F               	movf	btemp+1,w
  5718     000C  00F6               	movwf	??_ISR+3
  5719     000D  120A  118A  2A1E   	ljmp	_ISR
  5720                           
  5721                           	psect	text21
  5722     0165                     __ptext21:	
  5723 ;; *************** function _ClearStringReceive *****************
  5724 ;; Defined at:
  5725 ;;		line 61 in file "main.c"
  5726 ;; Parameters:    Size  Location     Type
  5727 ;;		None
  5728 ;; Auto vars:     Size  Location     Type
  5729 ;;  i               2    0[COMMON] int 
  5730 ;; Return value:  Size  Location     Type
  5731 ;;                  1    wreg      void 
  5732 ;; Registers used:
  5733 ;;		wreg, fsr0l, fsr0h, status,2, status,0, btemp+1
  5734 ;; Tracked objects:
  5735 ;;		On entry : 0/0
  5736 ;;		On exit  : 0/0
  5737 ;;		Unchanged: 0/0
  5738 ;; Data sizes:     COMMON   BANK0   BANK1   BANK3   BANK2
  5739 ;;      Params:         0       0       0       0       0
  5740 ;;      Locals:         2       0       0       0       0
  5741 ;;      Temps:          0       0       0       0       0
  5742 ;;      Totals:         2       0       0       0       0
  5743 ;;Total ram usage:        2 bytes
  5744 ;; Hardware stack levels used: 1
  5745 ;; This function calls:
  5746 ;;		Nothing
  5747 ;; This function is called by:
  5748 ;;		_ISR
  5749 ;; This function uses a non-reentrant model
  5750 ;;
  5751                           
  5752     0165                     _ClearStringReceive:	
  5753                           ;psect for function _ClearStringReceive
  5754                           
  5755     0165                     i1l1275:	
  5756                           ;incstack = 0
  5757                           ; Regs used in _ClearStringReceive: [wreg-fsr0h+status,2+status,0+btemp+1]
  5758                           
  5759                           
  5760                           ;main.c: 62:     pos = 0;
  5761     0165  01FA               	clrf	_pos
  5762     0166  01FB               	clrf	_pos+1
  5763                           
  5764                           ;main.c: 63:     for (int i = 0; i < 30; i++)
  5765     0167  01F1               	clrf	ClearStringReceive@i
  5766     0168  01F2               	clrf	ClearStringReceive@i+1
  5767     0169                     i1l1281:
  5768                           
  5769                           ;main.c: 64:         StringReceive[i] = '\0';
  5770     0169  0871               	movf	ClearStringReceive@i,w
  5771     016A  3E26               	addlw	(low (_StringReceive| 0))& (0+255)
  5772     016B  0084               	movwf	4
  5773     016C  1383               	bcf	3,7	;select IRP bank0
  5774     016D  0180               	clrf	0
  5775     016E                     i1l1283:
  5776     016E  3001               	movlw	1
  5777     016F  07F1               	addwf	ClearStringReceive@i,f
  5778     0170  1803               	skipnc
  5779     0171  0AF2               	incf	ClearStringReceive@i+1,f
  5780     0172  3000               	movlw	0
  5781     0173  07F2               	addwf	ClearStringReceive@i+1,f
  5782     0174                     i1l1285:
  5783     0174  0872               	movf	ClearStringReceive@i+1,w
  5784     0175  3A80               	xorlw	128
  5785     0176  00FF               	movwf	btemp+1
  5786     0177  3080               	movlw	128
  5787     0178  027F               	subwf	btemp+1,w
  5788     0179  1D03               	skipz
  5789     017A  297D               	goto	u60_25
  5790     017B  301E               	movlw	30
  5791     017C  0271               	subwf	ClearStringReceive@i,w
  5792     017D                     u60_25:
  5793     017D  1C03               	skipc
  5794     017E  2980               	goto	u60_21
  5795     017F  2981               	goto	u60_20
  5796     0180                     u60_21:
  5797     0180  2969               	goto	i1l1281
  5798     0181                     u60_20:
  5799     0181                     i1l239:
  5800     0181  0008               	return
  5801     0182                     __end_of_ClearStringReceive:
  5802     007E                     btemp	set	126	;btemp
  5803     007E                     wtemp0	set	126
  5804                           
  5805                           	psect	config
  5806                           
  5807                           ;Config register CONFIG1 @ 0x2007
  5808                           ;	Oscillator Selection bits
  5809                           ;	FOSC = HS, HS oscillator: High-speed crystal/resonator on RA6/OSC2/CLKOUT and RA7/OSC1
      +                          /CLKIN
  5810                           ;	Watchdog Timer Enable bit
  5811                           ;	WDTE = OFF, WDT disabled and can be enabled by SWDTEN bit of the WDTCON register
  5812                           ;	Power-up Timer Enable bit
  5813                           ;	PWRTE = OFF, PWRT disabled
  5814                           ;	RE3/MCLR pin function select bit
  5815                           ;	MCLRE = OFF, RE3/MCLR pin function is digital input, MCLR internally tied to VDD
  5816                           ;	Code Protection bit
  5817                           ;	CP = OFF, Program memory code protection is disabled
  5818                           ;	Data Code Protection bit
  5819                           ;	CPD = OFF, Data memory code protection is disabled
  5820                           ;	Brown Out Reset Selection bits
  5821                           ;	BOREN = ON, BOR enabled
  5822                           ;	Internal External Switchover bit
  5823                           ;	IESO = OFF, Internal/External Switchover mode is disabled
  5824                           ;	Fail-Safe Clock Monitor Enabled bit
  5825                           ;	FCMEN = OFF, Fail-Safe Clock Monitor is disabled
  5826                           ;	Low Voltage Programming Enable bit
  5827                           ;	LVP = OFF, RB3 pin has digital I/O, HV on MCLR must be used for programming
  5828                           ;	In-Circuit Debugger Mode bit
  5829                           ;	DEBUG = 0x1, unprogrammed default
  5830     2007                     	org	8199
  5831     2007  23D2               	dw	9170
  5832                           
  5833                           ;Config register CONFIG2 @ 0x2008
  5834                           ;	Brown-out Reset Selection bit
  5835                           ;	BOR4V = BOR40V, Brown-out Reset set to 4.0V
  5836                           ;	Flash Program Memory Self Write Enable bits
  5837                           ;	WRT = OFF, Write protection off
  5838     2008                     	org	8200
  5839     2008  3FFF               	dw	16383

Data Sizes:
    Strings     117
    Constant    0
    Data        63
    BSS         70
    Persistent  0
    Stack       0

Auto Spaces:
    Space          Size  Autos    Used
    COMMON           13      6      11
    BANK0            80     17      53
    BANK1            80      0      60
    BANK3            85      0      32
    BANK2            96      0       0

Pointer List with Targets:

    LCD_write_string@string	PTR unsigned char  size(1) Largest target is 19
		 -> STR_1(CODE[11]), STR_11(CODE[10]), STR_2(CODE[13]), STR_3(CODE[18]), 
		 -> STR_5(CODE[8]), STR_8(CODE[12]), STR_9(CODE[19]), 

    SendCommandAT@command	PTR unsigned char  size(2) Largest target is 30
		 -> STR_10(CODE[12]), STR_4(CODE[3]), STR_6(CODE[20]), StringReceive(BANK0[30]), 

    SendStringSerially@st	PTR unsigned char  size(2) Largest target is 30
		 -> STR_10(CODE[12]), STR_12(CODE[3]), STR_4(CODE[3]), STR_6(CODE[20]), 
		 -> StringReceive(BANK0[30]), 

    sp__strchr	PTR unsigned char  size(1) Largest target is 30
		 -> StringReceive(BANK0[30]), NULL(NULL[0]), 

    sp__strstr	PTR unsigned char  size(1) Largest target is 30
		 -> StringReceive(BANK0[30]), NULL(NULL[0]), 

    strchr@s	PTR const unsigned char  size(1) Largest target is 30
		 -> StringReceive(BANK0[30]), NULL(NULL[0]), 

    strlen@a	PTR const unsigned char  size(1) Largest target is 3
		 -> STR_7(CODE[3]), 

    strlen@s	PTR const unsigned char  size(1) Largest target is 3
		 -> STR_7(CODE[3]), 

    strncmp@l	PTR const unsigned char  size(1) Largest target is 30
		 -> StringReceive(BANK0[30]), NULL(NULL[0]), 

    strncmp@r	PTR const unsigned char  size(1) Largest target is 3
		 -> STR_7(CODE[3]), 

    strstr@h	PTR const unsigned char  size(1) Largest target is 30
		 -> StringReceive(BANK0[30]), NULL(NULL[0]), 

    strstr@n	PTR const unsigned char  size(1) Largest target is 3
		 -> STR_7(CODE[3]), 


Critical Paths under _main in COMMON

    None.

Critical Paths under _ISR in COMMON

    _ISR->_ClearStringReceive

Critical Paths under _main in BANK0

    _main->_strstr
    _switch_press_scan->_keypad_scanner
    _strstr->_strncmp
    _SendCommandAT->_SendStringSerially
    _SendStringSerially->_SendByteSerially
    _LCD_write_string->_LCD_write_data
    _LCD_write_char->_LCD_write_data
    _LCD_write_data->_LCD_pulse_clock
    _LCD_init->_LCD_clear
    _LCD_clear->_LCD_write_command
    _LCD_cursor_set->_LCD_write_command
    _LCD_write_command->_LCD_pulse_clock

Critical Paths under _ISR in BANK0

    None.

Critical Paths under _main in BANK1

    None.

Critical Paths under _ISR in BANK1

    None.

Critical Paths under _main in BANK3

    None.

Critical Paths under _ISR in BANK3

    None.

Critical Paths under _main in BANK2

    None.

Critical Paths under _ISR in BANK2

    None.

Call Graph Tables:

 ---------------------------------------------------------------------------------
 (Depth) Function   	        Calls       Base Space   Used Autos Params    Refs
 ---------------------------------------------------------------------------------
 (0) _main                                                 8     8      0    5229
                                             12 BANK0      5     5      0
                         _InitKeypad
                           _InitUART
                          _LCD_clear
                     _LCD_cursor_set
                           _LCD_init
                     _LCD_write_char
                   _LCD_write_string
                      _SendCommandAT
                             _strstr
                  _switch_press_scan
 ---------------------------------------------------------------------------------
 (1) _switch_press_scan                                    1     1      0      68
                                              2 BANK0      1     1      0
                     _keypad_scanner
 ---------------------------------------------------------------------------------
 (2) _keypad_scanner                                       2     2      0       0
                                              0 BANK0      2     2      0
 ---------------------------------------------------------------------------------
 (1) _strstr                                               6     5      1    1331
                                              6 BANK0      6     5      1
                             _strchr
                             _strlen
                            _strncmp
 ---------------------------------------------------------------------------------
 (2) _strncmp                                              6     3      3     473
                                              0 BANK0      6     3      3
 ---------------------------------------------------------------------------------
 (2) _strlen                                               4     2      2     166
                                              0 BANK0      4     2      2
 ---------------------------------------------------------------------------------
 (2) _strchr                                               3     1      2     250
                                              0 BANK0      3     1      2
 ---------------------------------------------------------------------------------
 (1) _SendCommandAT                                        2     0      2     757
                                              3 BANK0      2     0      2
                 _SendStringSerially
 ---------------------------------------------------------------------------------
 (2) _SendStringSerially                                   2     0      2     276
                                              1 BANK0      2     0      2
                   _SendByteSerially
 ---------------------------------------------------------------------------------
 (3) _SendByteSerially                                     1     1      0      31
                                              0 BANK0      1     1      0
 ---------------------------------------------------------------------------------
 (1) _LCD_write_string                                     2     2      0     630
                                              4 BANK0      2     2      0
                     _LCD_write_data
 ---------------------------------------------------------------------------------
 (1) _LCD_write_char                                       1     1      0     279
                                              4 BANK0      1     1      0
                     _LCD_write_data
 ---------------------------------------------------------------------------------
 (2) _LCD_write_data                                       3     3      0     248
                                              1 BANK0      3     3      0
                    _LCD_pulse_clock
 ---------------------------------------------------------------------------------
 (1) _LCD_init                                             2     2      0     496
                                              5 BANK0      2     2      0
                          _LCD_clear
                    _LCD_pulse_clock
                  _LCD_write_command
 ---------------------------------------------------------------------------------
 (2) _LCD_clear                                            1     1      0     248
                                              4 BANK0      1     1      0
                  _LCD_write_command
 ---------------------------------------------------------------------------------
 (1) _LCD_cursor_set                                       2     1      1    1315
                                              4 BANK0      2     1      1
                  _LCD_write_command
 ---------------------------------------------------------------------------------
 (2) _LCD_write_command                                    3     3      0     248
                                              1 BANK0      3     3      0
                    _LCD_pulse_clock
 ---------------------------------------------------------------------------------
 (3) _LCD_pulse_clock                                      1     1      0       0
                                              0 BANK0      1     1      0
 ---------------------------------------------------------------------------------
 (1) _InitUART                                             0     0      0       0
 ---------------------------------------------------------------------------------
 (1) _InitKeypad                                           0     0      0       0
 ---------------------------------------------------------------------------------
 Estimated maximum stack depth 3
 ---------------------------------------------------------------------------------
 (Depth) Function   	        Calls       Base Space   Used Autos Params    Refs
 ---------------------------------------------------------------------------------
 (5) _ISR                                                  4     4      0      45
                                              2 COMMON     4     4      0
                 _ClearStringReceive
 ---------------------------------------------------------------------------------
 (6) _ClearStringReceive                                   2     2      0      45
                                              0 COMMON     2     2      0
 ---------------------------------------------------------------------------------
 Estimated maximum stack depth 6
 ---------------------------------------------------------------------------------

 Call Graph Graphs:

 _main (ROOT)
   _InitKeypad
   _InitUART
   _LCD_clear
     _LCD_write_command
       _LCD_pulse_clock
   _LCD_cursor_set
     _LCD_write_command
   _LCD_init
     _LCD_clear
     _LCD_pulse_clock
     _LCD_write_command
   _LCD_write_char
     _LCD_write_data
       _LCD_pulse_clock
   _LCD_write_string
     _LCD_write_data
   _SendCommandAT
     _SendStringSerially
       _SendByteSerially
   _strstr
     _strchr
     _strlen
     _strncmp
   _switch_press_scan
     _keypad_scanner

 _ISR (ROOT)
   _ClearStringReceive

 Address spaces:
Name               Size   Autos  Total    Cost      Usage
BANK3               55      0      20       9       37.6%
BITBANK3            55      0       0       8        0.0%
SFR3                 0      0       0       4        0.0%
BITSFR3              0      0       0       4        0.0%
BANK2               60      0       0      11        0.0%
BITBANK2            60      0       0      10        0.0%
SFR2                 0      0       0       5        0.0%
BITSFR2              0      0       0       5        0.0%
BANK1               50      0      3C       7       75.0%
BITBANK1            50      0       0       6        0.0%
SFR1                 0      0       0       2        0.0%
BITSFR1              0      0       0       2        0.0%
BANK0               50     11      35       5       66.2%
BITBANK0            50      0       0       4        0.0%
SFR0                 0      0       0       1        0.0%
BITSFR0              0      0       0       1        0.0%
COMMON               D      6       B       1       84.6%
BITCOMMON            D      0       0       0        0.0%
CODE                 0      0       0       0        0.0%
DATA                 0      0      9C      12        0.0%
ABS                  0      0      9C       3        0.0%
NULL                 0      0       0       0        0.0%
STACK                0      0       0       2        0.0%
EEDATA             100      0       0       0        0.0%


Microchip Technology PIC Macro Assembler V2.45 build 20230818022343 
Symbol Table                                                                                   Sun Jan 07 23:46:52 2024

                         pc 0002                          l20 011C                          l84 021D  
                        fsr 0004                         l110 00DD                         l103 03B7  
                       l132 00B9                         l301 00C3                         l400 0626  
                       l401 061E                         l146 04DF                         l314 01EC  
                       l139 044B                         l171 01C4                         l404 063C  
                       l317 0133                         l405 0634                         l351 0653  
                       l344 00CF                         l360 053E                         l352 0512  
                       l409 064A                         l361 0536                         l353 050A  
                       l417 0105                         l347 04FC                         l380 05B4  
                       l372 0584                         l364 0558                         l356 0528  
                       l348 04F4                         l381 05AC                         l373 057C  
                       l365 0550                         l357 0520                         l295 014B  
                       l392 05F6                         l384 05CA                         l376 059A  
                       l368 056E                         l393 05EE                         l385 05C2  
                       l377 0592                         l369 0566                         l298 00BD  
                       l396 0610                         l388 05E0                         l397 0608  
                       l389 05D8                         l981 02E1                         l987 014F  
                       _GIE 005F                         l996 019E                         l989 0164  
                       _RB0 0030                         _RB1 0031                         _RB2 0032  
                       _RB3 0033                         _RB4 0034                         _RB5 0035  
                       _RB6 0036                         _RB7 0037                         _ISR 021E  
                       _pos 007A                         fsr0 0004                         indf 0000  
                      ?_ISR 0071                        l1000 0340                        l2201 04DA  
                      l2203 0106                        l2211 01C6                        l2205 010C  
                      l2213 01D4                        l2221 04FA                        l2207 0116  
                      l2215 01DC                        l2311 0650                        l2303 062A  
                      l2231 0516                        l2161 00D0                        l2401 0395  
                      l2209 01C5                        l2321 0188                        l2305 063A  
                      l2233 0526                        l2225 0500                        l2217 04E0  
                      l2163 00D3                        l2171 0404                        l2411 03A0  
                      l2403 0398                        l2323 018C                        l2331 02F3  
                      l2315 0652                        l2251 056C                        l2243 0546  
                      l2227 0510                        l2219 04EA                        l2165 00DA  
                      l2181 0446                        l2173 0409                        l2413 03A6  
                      l2405 0399                        l2421 01A2                        l2325 0198  
                      l2341 030C                        l2309 0640                        l2261 0588  
                      l2245 0556                        l2237 052C                        l2431 00C7  
                      l2175 041D                        l2167 03BB                        l2415 03AC  
                      l2407 039A                        l2191 0498                        l2423 01A4  
                      l2183 00BD                        l2351 014F                        l2319 0185  
                      l2343 0318                        l2335 02F6                        l2263 0598  
                      l2255 0572                        l2239 053C                        l2433 00CB  
                      l2441 013B                        l2177 0430                        l2169 03BC  
                      l2417 03B2                        l2409 039B                        l2193 049D  
                      l2425 01B1                        l2185 00C1                        l2353 0158  
                      l2345 031E                        l2337 02FE                        l2329 02E5  
                      l2281 05DE                        l2273 05B8                        l2257 0582  
                      l2249 055C                        l2451 0146                        l2443 013E  
                      l2435 0134                        l2179 043D                        l2371 0203  
                      l2363 01F0                        l2195 04B1                        l2187 044F  
                      l2419 00B3                        l2427 01B7                        l2347 032E  
                      l2339 0304                        l2291 05FE                        l2275 05C8  
                      l2267 05A2                        l2429 00C4                        l2453 0149  
                      l2445 0141                        l2437 0139                        l2373 0209  
                      l2365 01F5                        l2381 0341                        l2197 04C4  
                      l2189 0450                        l2357 015A                        l2461 0299  
                      l2293 060E                        l2285 05E4                        l2269 05B2  
                      l2701 07AE                        l2621 065E                        l2455 014A  
                      l2447 0142                        l2439 013A                        l2375 020D  
                      l2367 01F9                        l2391 0375                        l2383 0365  
                      l2199 04D1                        l2359 0163                        l2463 02A6  
                      l2471 02D3                        l2287 05F4                        l2279 05CE  
                      l2631 068B                        l2623 0668                        l2449 0145  
                      l2377 0213                        l2369 01FF                        l2393 0376  
                      l2385 0370                        l2457 011D                        l2473 02D8  
                      l2465 02BA                        l2297 0614                        l2481 00F6  
                      l2705 07B6                        l2641 06B4                        l2633 0691  
                      l2625 066E                        l2379 0217                        l2395 037B  
                      l2387 0373                        l2475 02E0                        l2459 0294  
                      l2299 0624                        l2483 00FE                        l2651 06E2  
                      l2643 06C2                        l2635 069F                        l2627 067C  
                      l2619 0654                        l2397 038A                        l2389 0374  
                      l2469 02BC                        l2485 0104                        l2661 070D  
                      l2653 06EC                        l2645 06C7                        l2637 06A4  
                      l2629 0681                        l2399 0390                        l2479 00F1  
                      l2671 0739                        l2663 0716                        l2655 06F7  
                      l2647 06D1                        l2639 06AE                        l2681 076D  
                      l2673 0743                        l2665 0724                        l2657 0704  
                      l2649 06DC                        l2691 0790                        l2683 077B  
                      l2675 0749                        l2667 0729                        l2659 0709  
                      l2693 0790                        l2685 077B                        l2677 0757  
                      l2669 0733                        l2695 079A                        l2687 0780  
                      l2679 0762                        l2697 07A0                        l2689 078A  
                      l2699 07A8                        STR_1 0075                        STR_2 005C  
                      STR_3 004A                        STR_4 0095                        STR_5 008A  
                      STR_6 0023                        STR_7 0072                        STR_8 0069  
                      STR_9 0037                        _CREN 00C4                        u2000 0556  
                      u2001 0555                        u2010 055C                        u2011 055B  
                      u2100 05C8                        u2020 056C                        u2101 05C7  
                      u2021 056B                        u2110 05CE                        u2030 0572  
                      u2111 05CD                        u2031 0571                        u2200 063A  
                      u2120 05DE                        u2040 0582                        u2201 0639  
                      u2121 05DD                        u2041 0581                        u2210 0640  
                      u2130 05E4                        u2050 0588                        u2211 063F  
                      u2131 05E3                        u2051 0587                        u2300 0163  
                      u2220 0650                        u2140 05F4                        u2060 0598  
                      u2301 0162                        u2221 064F                        u2141 05F3  
                      u2061 0597                        u2310 01F5                        u2230 0198  
                      u2150 05FE                        u2070 05A2                        u2311 01F4  
                      u2231 0197                        u2151 05FD                        u2071 05A1  
                      u2320 01FF                        u2240 02F3                        u2160 060E  
                      u2080 05B2                        u2400 0104                        u2321 01FE  
                      u2241 02F2                        u2161 060D                        u2081 05B1  
                      u2401 0103                        u2330 0209                        u2250 030C  
                      u2170 0614                        u2090 05B8                        u2331 0208  
                      u2251 030B                        u2171 0613                        u2091 05B7  
                      u2340 0213                        u2260 0318                        u2180 0624  
                      u2341 0212                        u2261 0317                        u2181 0623  
                      u2350 01C4                        u2270 031E                        u2190 062A  
                      u2351 01C3                        u2271 031D                        u2191 0629  
                      u2280 032E                        u2360 0299                        u2281 032D  
                      u2361 0298                        u2290 0158                        u2370 02BA  
                      u2291 0157                        u2371 02B9                        u1900 01EC  
                      u2380 02D8                        u1805 03F6                        u1901 01EB  
                      u2381 02D7                        u1830 00C1                        u2390 02E0  
                      u1910 04EA                        u1815 040E                        u1831 00C0  
                      u2391 02DF                        u1911 04E9                        u2607 06BC  
                      u1920 04FA                        u2560 0709                        u1825 0420  
                      u1921 04F9                        u2617 071E                        u2561 0708  
                      u1930 0500                        u2570 07B6                        u2707 0562  
                      u1931 04FF                        u2571 07B5                        u2627 0751  
                      u1940 0510                        u1845 0453                        u2717 0578  
                      u1941 050F                        u2637 0775                        u1950 0516  
                      u1775 03BF                        u1855 0465                        u2807 0646  
                      u2727 058E                        u1951 0515                        u2647 07BE  
                      u1960 0526                        u1785 03D1                        u2817 036B  
                      u1865 0478                        u2737 05A8                        u1961 0525  
                      u2657 04F0                        u1970 052C                        u1795 03E4  
                      u2827 0381                        u1875 048A                        u2747 05BE  
                      u1971 052B                        u2667 0506                        u2587 0676  
                      _PEIE 005E                        u1980 053C                        u2837 038E  
                      u1885 04A2                        u2757 05D4                        u1981 053B  
                      u2677 051C                        u2597 0699                        u1990 0546  
                      u2847 0110                        u1895 04B4                        u2767 05EA  
                      u1991 0545                        u2687 0532                        u2857 00D7  
                      u2777 0604                        u2697 054C                        u2787 061A  
                      _RCIF 0065                        u2797 0630                        _OERR 00C1  
                      _TXIF 0064                        _main 0654                        _mode 0077  
                      _test 0024                        btemp 007E                        start 0010  
                     ??_ISR 0073            __end_of_LCD_init 03B8                       ?_main 0071  
                     STR_10 0069                       STR_11 0080                       STR_12 0092  
                     i1l239 0181                       i1l264 024A                       _RCREG 001A  
                     _SPBRG 0099                       _PORTB 0006                       u60_20 0181  
                     u60_21 0180                       u60_25 017D                       _TRISB 0086  
                     u83_20 0224                       u83_21 0223                       u84_20 022D  
                     u84_21 022C                       u85_20 0243                       u85_21 0242  
                     _TXREG 0019               _StringDisplay 0190          _SendStringSerially 01C5  
          ??_keypad_scanner 0044               _StringReceive 0026                       main@x 0053  
                     pclath 000A         ?_SendStringSerially 0045                       status 0003  
                     wtemp0 007E             __end_of_strncmp 0341                  _InitKeypad 00C4  
           __initialization 07C8                __end_of_main 07C8            __end_of_InitUART 014C  
      ??_SendStringSerially 0047           ?_LCD_write_string 0071                      ??_main 0050  
        ??_LCD_write_string 0048           __end_of_LCD_clear 011D                      i1l1281 0169  
                    i1l1283 016E                      i1l1275 0165                      i1l1285 0174  
                    i1l1551 0233                      i1l1553 0239                      i1l1545 021E  
                    i1l1547 0224                      i1l1555 023A                      i1l1557 0243  
                    i1l1549 022D                      i1l1559 0248      LCD_write_string@string 0049  
                    _TRISC6 043E                      _TRISC7 043F                      _strchr 014C  
                    _strlen 0182                      _strstr 0291  __end_of_ClearStringReceive 0182  
  __end_of_SendByteSerially 00C4                __pdataCOMMON 0077                      saved_w 007E  
                 ??_strncmp 0047     __end_of__initialization 07FC                   ?_LCD_init 0071  
               ?_InitKeypad 0071              __pcstackCOMMON 0071                __pidataBANK1 0255  
            _LCD_entry_mode 0079           _LCD_write_command 03B8        SendByteSerially@Byte 0044  
            _LCD_cursor_set 01ED          ?_LCD_write_command 0071         ??_LCD_write_command 0045  
                __pbssBANK0 0020                  __pbssBANK3 0190                   ?_InitUART 0071  
                ??_LCD_init 0049   __end_of_LCD_write_command 044C                  __pmaintext 0654  
    __end_of_LCD_cursor_set 021E                  __pintentry 0004         ClearStringReceive@i 0071  
                   ?_strchr 0044                     ?_strlen 0044                     ?_strstr 004A  
             _SendCommandAT 011D                  __stringtab 0013    LCD_write_command@command 0047  
                ??_InitUART 0044        SendStringSerially@st 0045             ?_LCD_cursor_set 0048  
            _LCD_write_char 00B0              _LCD_write_data 044C                     __ptext1 00F1  
                   __ptext2 04E0                     __ptext3 0291                     __ptext4 02E2  
            ?_SendCommandAT 0047                     __ptext5 0182                     __ptext6 014C  
                   __ptext7 011D                     __ptext8 01C5                     __ptext9 00BA  
                   main@Key 0054                     clrloop0 00A9                     _strncmp 02E2  
                 _LCD_clear 0106        end_of_initialization 07FC        LCD_cursor_set@column 0048  
       _LCD_display_control 0078      __end_of_LCD_write_char 00BA      __end_of_LCD_write_data 04E0  
                 _RCSTAbits 0018                     strchr@c 0044                     strchr@s 0046  
                   strlen@a 0046                     strlen@s 0047                     strstr@h 004F  
                   strstr@n 004A                   _PORTDbits 0008           ??_LCD_pulse_clock 0044  
         ?_SendByteSerially 0071                   _TRISDbits 0088          ??_SendByteSerially 0044  
      switch_press_scan@key 0046                  ?_LCD_clear 0071          _ClearStringReceive 0165  
                 _TXSTAbits 0098                ??_InitKeypad 0044         ?_ClearStringReceive 0071  
           ?_LCD_write_char 0071             ?_LCD_write_data 0071             ??_SendCommandAT 0049  
             __pidataCOMMON 00A5              __end_of_strchr 0165              __end_of_strlen 019F  
            __end_of_strstr 02E2         start_initialization 07C8        ??_ClearStringReceive 0071  
               __end_of_ISR 0255          __end_of_InitKeypad 00D0                  init_fetch0 00DE  
               __pdataBANK1 00A0     LCD_write_char@character 0048                    ??_strchr 0046  
                  ??_strlen 0046                    ??_strstr 004B                 __pbssCOMMON 007A  
                 ___latbits 0002               __pcstackBANK0 0044                 ??_LCD_clear 0048  
          _LCD_write_string 019F            ??_LCD_cursor_set 0049        SendCommandAT@command 0047  
                 __pstrings 0013          LCD_write_data@data 0047                    ?_strncmp 0044  
         interrupt_function 0004                    _LCD_init 0341                   clear_ram0 00A8  
            _keypad_scanner 04E0                    _PIE1bits 008C                    _PIR1bits 000C  
           _LCD_pulse_clock 00D0           _switch_press_scan 00F1                 __stringbase 0022  
        ?_switch_press_scan 0071         ??_switch_press_scan 0046                    _InitUART 0134  
    __end_of_keypad_scanner 0654            ??_LCD_write_char 0048            ??_LCD_write_data 0045  
                  _PassWord 00A0                   modff@F522 0020                    _WifiName 00BE  
 __end_of_switch_press_scan 0106           LCD_cursor_set@row 0049  __end_of_SendStringSerially 01ED  
        __end_of__stringtab 0023                    __ptext10 019F                    __ptext11 00B0  
                  __ptext20 021E                    __ptext12 044C                    __ptext21 0165  
                  __ptext13 0341                    __ptext14 0106                    __ptext15 01ED  
                  __ptext16 03B8                    __ptext17 00D0                    __ptext18 0134  
                  __ptext19 00C4             ?_keypad_scanner 0071     __end_of_LCD_pulse_clock 00DE  
  __end_of_LCD_write_string 01C5       __end_of_SendCommandAT 0134                    init_ram0 00E2  
         LCD_write_string@i 0048                    intlevel1 0000                   stringcode 001D  
                _OPTION_REG 0081                    strncmp@l 0049                    strncmp@n 0045  
                  strncmp@r 0044                    stringdir 001D                    stringtab 0013  
                  strstr@nl 004D            ?_LCD_pulse_clock 0071            _SendByteSerially 00BA  
