

Microchip MPLAB XC8 Assembler V2.45 build 20230818022343 
                                                                                               Fri Jan 26 02:46:33 2024

Microchip MPLAB XC8 C Compiler v2.45 (Free license) build 20230818022343 Og1 
     1                           	processor	16F887
     2                           	pagewidth 120
     3                           	opt	flic
     4                           	psect	idataCOMMON,global,class=CODE,delta=2,noexec
     5                           	psect	strings,global,class=STRING,delta=2,noexec
     6                           	psect	cinit,global,class=CODE,merge=1,delta=2
     7                           	psect	dataCOMMON,global,class=COMMON,space=1,delta=1,noexec
     8                           	psect	bssBANK0,global,class=BANK0,space=1,delta=1,noexec
     9                           	psect	bssBANK1,global,class=BANK1,space=1,delta=1,noexec
    10                           	psect	clrtext,global,class=CODE,delta=2
    11                           	psect	cstackCOMMON,global,class=COMMON,space=1,delta=1,noexec
    12                           	psect	cstackBANK0,global,class=BANK0,space=1,delta=1,noexec
    13                           	psect	maintext,global,class=CODE,split=1,delta=2
    14                           	psect	text1,local,class=CODE,merge=1,delta=2
    15                           	psect	text2,local,class=CODE,merge=1,delta=2
    16                           	psect	text3,local,class=CODE,merge=1,delta=2
    17                           	psect	text4,local,class=CODE,merge=1,delta=2
    18                           	psect	text5,local,class=CODE,merge=1,delta=2
    19                           	psect	text6,local,class=CODE,merge=1,delta=2
    20                           	psect	text7,local,class=CODE,merge=1,delta=2
    21                           	psect	text8,local,class=CODE,merge=1,delta=2
    22                           	psect	text9,local,class=CODE,merge=1,delta=2
    23                           	psect	text10,local,class=CODE,merge=1,delta=2
    24                           	psect	text11,local,class=CODE,merge=1,delta=2
    25                           	psect	text12,local,class=CODE,merge=1,delta=2
    26                           	psect	intentry,global,class=CODE,delta=2
    27                           	psect	text13,local,class=CODE,merge=1,delta=2,group=2
    28                           	psect	text14,local,class=CODE,merge=1,delta=2,group=2
    29                           	psect	text15,local,class=CODE,merge=1,delta=2,group=2
    30                           	psect	text16,local,class=CODE,merge=1,delta=2,group=2
    31                           	psect	text17,local,class=CODE,merge=1,delta=2
    32                           	psect	config,global,abs,ovrld,class=CONFIG,space=4,delta=2,noexec
    33                           	dabs	1,0x7E,2
    34     0000                     
    35                           ; Generated 22/03/2023 GMT
    36                           ; 
    37                           ; Copyright © 2023, Microchip Technology Inc. and its subsidiaries ("Microchip")
    38                           ; All rights reserved.
    39                           ; 
    40                           ; This software is developed by Microchip Technology Inc. and its subsidiaries ("Microch
      +                          ip").
    41                           ; 
    42                           ; Redistribution and use in source and binary forms, with or without modification, are
    43                           ; permitted provided that the following conditions are met:
    44                           ; 
    45                           ;     1. Redistributions of source code must retain the above copyright notice, this lis
      +                          t of
    46                           ;        conditions and the following disclaimer.
    47                           ; 
    48                           ;     2. Redistributions in binary form must reproduce the above copyright notice, this 
      +                          list
    49                           ;        of conditions and the following disclaimer in the documentation and/or other
    50                           ;        materials provided with the distribution. Publication is not required when
    51                           ;        this file is used in an embedded application.
    52                           ; 
    53                           ;     3. Microchip's name may not be used to endorse or promote products derived from th
      +                          is
    54                           ;        software without specific prior written permission.
    55                           ; 
    56                           ; THIS SOFTWARE IS PROVIDED BY MICROCHIP "AS IS" AND ANY EXPRESS OR IMPLIED WARRANTIES,
    57                           ; INCLUDING, BUT NOT LIMITED TO, THE IMPLIED WARRANTIES OF MERCHANTABILITY AND FITNESS F
      +                          OR
    58                           ; PURPOSE ARE DISCLAIMED.  IN NO EVENT SHALL MICROCHIP BE LIABLE FOR ANY DIRECT, INDIREC
      +                          T,
    59                           ; INCIDENTAL, SPECIAL, EXEMPLARY, OR CONSEQUENTIAL DAMAGES (INCLUDING BUT NOT LIMITED TO
    60                           ; PROCUREMENT OF SUBSTITUTE GOODS OR SERVICES; LOSS OF USE, DATA OR PROFITS; OR BUSINESS
    61                           ; INTERRUPTION) HOWSOEVER CAUSED AND ON ANY THEORY OF LIABILITY, WHETHER IN CONTRACT, ST
      +                          RICT
    62                           ; LIABILITY, OR TORT (INCLUDING NEGLIGENCE OR OTHERWISE) ARISING IN ANY WAY OUT OF THE U
      +                          SE OF
    63                           ; THIS SOFTWARE, EVEN IF ADVISED OF THE POSSIBILITY OF SUCH DAMAGE.
    64                           ; 
    65                           ; 
    66                           ; Code-generator required, PIC16F887 Definitions
    67                           ; 
    68                           ; SFR Addresses
    69     0000                     	;# 
    70     0001                     	;# 
    71     0002                     	;# 
    72     0003                     	;# 
    73     0004                     	;# 
    74     0005                     	;# 
    75     0006                     	;# 
    76     0007                     	;# 
    77     0008                     	;# 
    78     0009                     	;# 
    79     000A                     	;# 
    80     000B                     	;# 
    81     000C                     	;# 
    82     000D                     	;# 
    83     000E                     	;# 
    84     000E                     	;# 
    85     000F                     	;# 
    86     0010                     	;# 
    87     0011                     	;# 
    88     0012                     	;# 
    89     0013                     	;# 
    90     0014                     	;# 
    91     0015                     	;# 
    92     0015                     	;# 
    93     0016                     	;# 
    94     0017                     	;# 
    95     0018                     	;# 
    96     0019                     	;# 
    97     001A                     	;# 
    98     001B                     	;# 
    99     001B                     	;# 
   100     001C                     	;# 
   101     001D                     	;# 
   102     001E                     	;# 
   103     001F                     	;# 
   104     0081                     	;# 
   105     0085                     	;# 
   106     0086                     	;# 
   107     0087                     	;# 
   108     0088                     	;# 
   109     0089                     	;# 
   110     008C                     	;# 
   111     008D                     	;# 
   112     008E                     	;# 
   113     008F                     	;# 
   114     0090                     	;# 
   115     0091                     	;# 
   116     0092                     	;# 
   117     0093                     	;# 
   118     0093                     	;# 
   119     0093                     	;# 
   120     0094                     	;# 
   121     0095                     	;# 
   122     0096                     	;# 
   123     0097                     	;# 
   124     0098                     	;# 
   125     0099                     	;# 
   126     009A                     	;# 
   127     009B                     	;# 
   128     009C                     	;# 
   129     009D                     	;# 
   130     009E                     	;# 
   131     009F                     	;# 
   132     0105                     	;# 
   133     0107                     	;# 
   134     0108                     	;# 
   135     0109                     	;# 
   136     010C                     	;# 
   137     010C                     	;# 
   138     010D                     	;# 
   139     010E                     	;# 
   140     010F                     	;# 
   141     0185                     	;# 
   142     0187                     	;# 
   143     0188                     	;# 
   144     0189                     	;# 
   145     018C                     	;# 
   146     018D                     	;# 
   147     0000                     	;# 
   148     0001                     	;# 
   149     0002                     	;# 
   150     0003                     	;# 
   151     0004                     	;# 
   152     0005                     	;# 
   153     0006                     	;# 
   154     0007                     	;# 
   155     0008                     	;# 
   156     0009                     	;# 
   157     000A                     	;# 
   158     000B                     	;# 
   159     000C                     	;# 
   160     000D                     	;# 
   161     000E                     	;# 
   162     000E                     	;# 
   163     000F                     	;# 
   164     0010                     	;# 
   165     0011                     	;# 
   166     0012                     	;# 
   167     0013                     	;# 
   168     0014                     	;# 
   169     0015                     	;# 
   170     0015                     	;# 
   171     0016                     	;# 
   172     0017                     	;# 
   173     0018                     	;# 
   174     0019                     	;# 
   175     001A                     	;# 
   176     001B                     	;# 
   177     001B                     	;# 
   178     001C                     	;# 
   179     001D                     	;# 
   180     001E                     	;# 
   181     001F                     	;# 
   182     0081                     	;# 
   183     0085                     	;# 
   184     0086                     	;# 
   185     0087                     	;# 
   186     0088                     	;# 
   187     0089                     	;# 
   188     008C                     	;# 
   189     008D                     	;# 
   190     008E                     	;# 
   191     008F                     	;# 
   192     0090                     	;# 
   193     0091                     	;# 
   194     0092                     	;# 
   195     0093                     	;# 
   196     0093                     	;# 
   197     0093                     	;# 
   198     0094                     	;# 
   199     0095                     	;# 
   200     0096                     	;# 
   201     0097                     	;# 
   202     0098                     	;# 
   203     0099                     	;# 
   204     009A                     	;# 
   205     009B                     	;# 
   206     009C                     	;# 
   207     009D                     	;# 
   208     009E                     	;# 
   209     009F                     	;# 
   210     0105                     	;# 
   211     0107                     	;# 
   212     0108                     	;# 
   213     0109                     	;# 
   214     010C                     	;# 
   215     010C                     	;# 
   216     010D                     	;# 
   217     010E                     	;# 
   218     010F                     	;# 
   219     0185                     	;# 
   220     0187                     	;# 
   221     0188                     	;# 
   222     0189                     	;# 
   223     018C                     	;# 
   224     018D                     	;# 
   225     0000                     	;# 
   226     0001                     	;# 
   227     0002                     	;# 
   228     0003                     	;# 
   229     0004                     	;# 
   230     0005                     	;# 
   231     0006                     	;# 
   232     0007                     	;# 
   233     0008                     	;# 
   234     0009                     	;# 
   235     000A                     	;# 
   236     000B                     	;# 
   237     000C                     	;# 
   238     000D                     	;# 
   239     000E                     	;# 
   240     000E                     	;# 
   241     000F                     	;# 
   242     0010                     	;# 
   243     0011                     	;# 
   244     0012                     	;# 
   245     0013                     	;# 
   246     0014                     	;# 
   247     0015                     	;# 
   248     0015                     	;# 
   249     0016                     	;# 
   250     0017                     	;# 
   251     0018                     	;# 
   252     0019                     	;# 
   253     001A                     	;# 
   254     001B                     	;# 
   255     001B                     	;# 
   256     001C                     	;# 
   257     001D                     	;# 
   258     001E                     	;# 
   259     001F                     	;# 
   260     0081                     	;# 
   261     0085                     	;# 
   262     0086                     	;# 
   263     0087                     	;# 
   264     0088                     	;# 
   265     0089                     	;# 
   266     008C                     	;# 
   267     008D                     	;# 
   268     008E                     	;# 
   269     008F                     	;# 
   270     0090                     	;# 
   271     0091                     	;# 
   272     0092                     	;# 
   273     0093                     	;# 
   274     0093                     	;# 
   275     0093                     	;# 
   276     0094                     	;# 
   277     0095                     	;# 
   278     0096                     	;# 
   279     0097                     	;# 
   280     0098                     	;# 
   281     0099                     	;# 
   282     009A                     	;# 
   283     009B                     	;# 
   284     009C                     	;# 
   285     009D                     	;# 
   286     009E                     	;# 
   287     009F                     	;# 
   288     0105                     	;# 
   289     0107                     	;# 
   290     0108                     	;# 
   291     0109                     	;# 
   292     010C                     	;# 
   293     010C                     	;# 
   294     010D                     	;# 
   295     010E                     	;# 
   296     010F                     	;# 
   297     0185                     	;# 
   298     0187                     	;# 
   299     0188                     	;# 
   300     0189                     	;# 
   301     018C                     	;# 
   302     018D                     	;# 
   303     0000                     	;# 
   304     0001                     	;# 
   305     0002                     	;# 
   306     0003                     	;# 
   307     0004                     	;# 
   308     0005                     	;# 
   309     0006                     	;# 
   310     0007                     	;# 
   311     0008                     	;# 
   312     0009                     	;# 
   313     000A                     	;# 
   314     000B                     	;# 
   315     000C                     	;# 
   316     000D                     	;# 
   317     000E                     	;# 
   318     000E                     	;# 
   319     000F                     	;# 
   320     0010                     	;# 
   321     0011                     	;# 
   322     0012                     	;# 
   323     0013                     	;# 
   324     0014                     	;# 
   325     0015                     	;# 
   326     0015                     	;# 
   327     0016                     	;# 
   328     0017                     	;# 
   329     0018                     	;# 
   330     0019                     	;# 
   331     001A                     	;# 
   332     001B                     	;# 
   333     001B                     	;# 
   334     001C                     	;# 
   335     001D                     	;# 
   336     001E                     	;# 
   337     001F                     	;# 
   338     0081                     	;# 
   339     0085                     	;# 
   340     0086                     	;# 
   341     0087                     	;# 
   342     0088                     	;# 
   343     0089                     	;# 
   344     008C                     	;# 
   345     008D                     	;# 
   346     008E                     	;# 
   347     008F                     	;# 
   348     0090                     	;# 
   349     0091                     	;# 
   350     0092                     	;# 
   351     0093                     	;# 
   352     0093                     	;# 
   353     0093                     	;# 
   354     0094                     	;# 
   355     0095                     	;# 
   356     0096                     	;# 
   357     0097                     	;# 
   358     0098                     	;# 
   359     0099                     	;# 
   360     009A                     	;# 
   361     009B                     	;# 
   362     009C                     	;# 
   363     009D                     	;# 
   364     009E                     	;# 
   365     009F                     	;# 
   366     0105                     	;# 
   367     0107                     	;# 
   368     0108                     	;# 
   369     0109                     	;# 
   370     010C                     	;# 
   371     010C                     	;# 
   372     010D                     	;# 
   373     010E                     	;# 
   374     010F                     	;# 
   375     0185                     	;# 
   376     0187                     	;# 
   377     0188                     	;# 
   378     0189                     	;# 
   379     018C                     	;# 
   380     018D                     	;# 
   381     0000                     	;# 
   382     0001                     	;# 
   383     0002                     	;# 
   384     0003                     	;# 
   385     0004                     	;# 
   386     0005                     	;# 
   387     0006                     	;# 
   388     0007                     	;# 
   389     0008                     	;# 
   390     0009                     	;# 
   391     000A                     	;# 
   392     000B                     	;# 
   393     000C                     	;# 
   394     000D                     	;# 
   395     000E                     	;# 
   396     000E                     	;# 
   397     000F                     	;# 
   398     0010                     	;# 
   399     0011                     	;# 
   400     0012                     	;# 
   401     0013                     	;# 
   402     0014                     	;# 
   403     0015                     	;# 
   404     0015                     	;# 
   405     0016                     	;# 
   406     0017                     	;# 
   407     0018                     	;# 
   408     0019                     	;# 
   409     001A                     	;# 
   410     001B                     	;# 
   411     001B                     	;# 
   412     001C                     	;# 
   413     001D                     	;# 
   414     001E                     	;# 
   415     001F                     	;# 
   416     0081                     	;# 
   417     0085                     	;# 
   418     0086                     	;# 
   419     0087                     	;# 
   420     0088                     	;# 
   421     0089                     	;# 
   422     008C                     	;# 
   423     008D                     	;# 
   424     008E                     	;# 
   425     008F                     	;# 
   426     0090                     	;# 
   427     0091                     	;# 
   428     0092                     	;# 
   429     0093                     	;# 
   430     0093                     	;# 
   431     0093                     	;# 
   432     0094                     	;# 
   433     0095                     	;# 
   434     0096                     	;# 
   435     0097                     	;# 
   436     0098                     	;# 
   437     0099                     	;# 
   438     009A                     	;# 
   439     009B                     	;# 
   440     009C                     	;# 
   441     009D                     	;# 
   442     009E                     	;# 
   443     009F                     	;# 
   444     0105                     	;# 
   445     0107                     	;# 
   446     0108                     	;# 
   447     0109                     	;# 
   448     010C                     	;# 
   449     010C                     	;# 
   450     010D                     	;# 
   451     010E                     	;# 
   452     010F                     	;# 
   453     0185                     	;# 
   454     0187                     	;# 
   455     0188                     	;# 
   456     0189                     	;# 
   457     018C                     	;# 
   458     018D                     	;# 
   459     0000                     	;# 
   460     0001                     	;# 
   461     0002                     	;# 
   462     0003                     	;# 
   463     0004                     	;# 
   464     0005                     	;# 
   465     0006                     	;# 
   466     0007                     	;# 
   467     0008                     	;# 
   468     0009                     	;# 
   469     000A                     	;# 
   470     000B                     	;# 
   471     000C                     	;# 
   472     000D                     	;# 
   473     000E                     	;# 
   474     000E                     	;# 
   475     000F                     	;# 
   476     0010                     	;# 
   477     0011                     	;# 
   478     0012                     	;# 
   479     0013                     	;# 
   480     0014                     	;# 
   481     0015                     	;# 
   482     0015                     	;# 
   483     0016                     	;# 
   484     0017                     	;# 
   485     0018                     	;# 
   486     0019                     	;# 
   487     001A                     	;# 
   488     001B                     	;# 
   489     001B                     	;# 
   490     001C                     	;# 
   491     001D                     	;# 
   492     001E                     	;# 
   493     001F                     	;# 
   494     0081                     	;# 
   495     0085                     	;# 
   496     0086                     	;# 
   497     0087                     	;# 
   498     0088                     	;# 
   499     0089                     	;# 
   500     008C                     	;# 
   501     008D                     	;# 
   502     008E                     	;# 
   503     008F                     	;# 
   504     0090                     	;# 
   505     0091                     	;# 
   506     0092                     	;# 
   507     0093                     	;# 
   508     0093                     	;# 
   509     0093                     	;# 
   510     0094                     	;# 
   511     0095                     	;# 
   512     0096                     	;# 
   513     0097                     	;# 
   514     0098                     	;# 
   515     0099                     	;# 
   516     009A                     	;# 
   517     009B                     	;# 
   518     009C                     	;# 
   519     009D                     	;# 
   520     009E                     	;# 
   521     009F                     	;# 
   522     0105                     	;# 
   523     0107                     	;# 
   524     0108                     	;# 
   525     0109                     	;# 
   526     010C                     	;# 
   527     010C                     	;# 
   528     010D                     	;# 
   529     010E                     	;# 
   530     010F                     	;# 
   531     0185                     	;# 
   532     0187                     	;# 
   533     0188                     	;# 
   534     0189                     	;# 
   535     018C                     	;# 
   536     018D                     	;# 
   537     0000                     	;# 
   538     0001                     	;# 
   539     0002                     	;# 
   540     0003                     	;# 
   541     0004                     	;# 
   542     0005                     	;# 
   543     0006                     	;# 
   544     0007                     	;# 
   545     0008                     	;# 
   546     0009                     	;# 
   547     000A                     	;# 
   548     000B                     	;# 
   549     000C                     	;# 
   550     000D                     	;# 
   551     000E                     	;# 
   552     000E                     	;# 
   553     000F                     	;# 
   554     0010                     	;# 
   555     0011                     	;# 
   556     0012                     	;# 
   557     0013                     	;# 
   558     0014                     	;# 
   559     0015                     	;# 
   560     0015                     	;# 
   561     0016                     	;# 
   562     0017                     	;# 
   563     0018                     	;# 
   564     0019                     	;# 
   565     001A                     	;# 
   566     001B                     	;# 
   567     001B                     	;# 
   568     001C                     	;# 
   569     001D                     	;# 
   570     001E                     	;# 
   571     001F                     	;# 
   572     0081                     	;# 
   573     0085                     	;# 
   574     0086                     	;# 
   575     0087                     	;# 
   576     0088                     	;# 
   577     0089                     	;# 
   578     008C                     	;# 
   579     008D                     	;# 
   580     008E                     	;# 
   581     008F                     	;# 
   582     0090                     	;# 
   583     0091                     	;# 
   584     0092                     	;# 
   585     0093                     	;# 
   586     0093                     	;# 
   587     0093                     	;# 
   588     0094                     	;# 
   589     0095                     	;# 
   590     0096                     	;# 
   591     0097                     	;# 
   592     0098                     	;# 
   593     0099                     	;# 
   594     009A                     	;# 
   595     009B                     	;# 
   596     009C                     	;# 
   597     009D                     	;# 
   598     009E                     	;# 
   599     009F                     	;# 
   600     0105                     	;# 
   601     0107                     	;# 
   602     0108                     	;# 
   603     0109                     	;# 
   604     010C                     	;# 
   605     010C                     	;# 
   606     010D                     	;# 
   607     010E                     	;# 
   608     010F                     	;# 
   609     0185                     	;# 
   610     0187                     	;# 
   611     0188                     	;# 
   612     0189                     	;# 
   613     018C                     	;# 
   614     018D                     	;# 
   615     0000                     	;# 
   616     0001                     	;# 
   617     0002                     	;# 
   618     0003                     	;# 
   619     0004                     	;# 
   620     0005                     	;# 
   621     0006                     	;# 
   622     0007                     	;# 
   623     0008                     	;# 
   624     0009                     	;# 
   625     000A                     	;# 
   626     000B                     	;# 
   627     000C                     	;# 
   628     000D                     	;# 
   629     000E                     	;# 
   630     000E                     	;# 
   631     000F                     	;# 
   632     0010                     	;# 
   633     0011                     	;# 
   634     0012                     	;# 
   635     0013                     	;# 
   636     0014                     	;# 
   637     0015                     	;# 
   638     0015                     	;# 
   639     0016                     	;# 
   640     0017                     	;# 
   641     0018                     	;# 
   642     0019                     	;# 
   643     001A                     	;# 
   644     001B                     	;# 
   645     001B                     	;# 
   646     001C                     	;# 
   647     001D                     	;# 
   648     001E                     	;# 
   649     001F                     	;# 
   650     0081                     	;# 
   651     0085                     	;# 
   652     0086                     	;# 
   653     0087                     	;# 
   654     0088                     	;# 
   655     0089                     	;# 
   656     008C                     	;# 
   657     008D                     	;# 
   658     008E                     	;# 
   659     008F                     	;# 
   660     0090                     	;# 
   661     0091                     	;# 
   662     0092                     	;# 
   663     0093                     	;# 
   664     0093                     	;# 
   665     0093                     	;# 
   666     0094                     	;# 
   667     0095                     	;# 
   668     0096                     	;# 
   669     0097                     	;# 
   670     0098                     	;# 
   671     0099                     	;# 
   672     009A                     	;# 
   673     009B                     	;# 
   674     009C                     	;# 
   675     009D                     	;# 
   676     009E                     	;# 
   677     009F                     	;# 
   678     0105                     	;# 
   679     0107                     	;# 
   680     0108                     	;# 
   681     0109                     	;# 
   682     010C                     	;# 
   683     010C                     	;# 
   684     010D                     	;# 
   685     010E                     	;# 
   686     010F                     	;# 
   687     0185                     	;# 
   688     0187                     	;# 
   689     0188                     	;# 
   690     0189                     	;# 
   691     018C                     	;# 
   692     018D                     	;# 
   693     0000                     	;# 
   694     0001                     	;# 
   695     0002                     	;# 
   696     0003                     	;# 
   697     0004                     	;# 
   698     0005                     	;# 
   699     0006                     	;# 
   700     0007                     	;# 
   701     0008                     	;# 
   702     0009                     	;# 
   703     000A                     	;# 
   704     000B                     	;# 
   705     000C                     	;# 
   706     000D                     	;# 
   707     000E                     	;# 
   708     000E                     	;# 
   709     000F                     	;# 
   710     0010                     	;# 
   711     0011                     	;# 
   712     0012                     	;# 
   713     0013                     	;# 
   714     0014                     	;# 
   715     0015                     	;# 
   716     0015                     	;# 
   717     0016                     	;# 
   718     0017                     	;# 
   719     0018                     	;# 
   720     0019                     	;# 
   721     001A                     	;# 
   722     001B                     	;# 
   723     001B                     	;# 
   724     001C                     	;# 
   725     001D                     	;# 
   726     001E                     	;# 
   727     001F                     	;# 
   728     0081                     	;# 
   729     0085                     	;# 
   730     0086                     	;# 
   731     0087                     	;# 
   732     0088                     	;# 
   733     0089                     	;# 
   734     008C                     	;# 
   735     008D                     	;# 
   736     008E                     	;# 
   737     008F                     	;# 
   738     0090                     	;# 
   739     0091                     	;# 
   740     0092                     	;# 
   741     0093                     	;# 
   742     0093                     	;# 
   743     0093                     	;# 
   744     0094                     	;# 
   745     0095                     	;# 
   746     0096                     	;# 
   747     0097                     	;# 
   748     0098                     	;# 
   749     0099                     	;# 
   750     009A                     	;# 
   751     009B                     	;# 
   752     009C                     	;# 
   753     009D                     	;# 
   754     009E                     	;# 
   755     009F                     	;# 
   756     0105                     	;# 
   757     0107                     	;# 
   758     0108                     	;# 
   759     0109                     	;# 
   760     010C                     	;# 
   761     010C                     	;# 
   762     010D                     	;# 
   763     010E                     	;# 
   764     010F                     	;# 
   765     0185                     	;# 
   766     0187                     	;# 
   767     0188                     	;# 
   768     0189                     	;# 
   769     018C                     	;# 
   770     018D                     	;# 
   771     0000                     	;# 
   772     0001                     	;# 
   773     0002                     	;# 
   774     0003                     	;# 
   775     0004                     	;# 
   776     0005                     	;# 
   777     0006                     	;# 
   778     0007                     	;# 
   779     0008                     	;# 
   780     0009                     	;# 
   781     000A                     	;# 
   782     000B                     	;# 
   783     000C                     	;# 
   784     000D                     	;# 
   785     000E                     	;# 
   786     000E                     	;# 
   787     000F                     	;# 
   788     0010                     	;# 
   789     0011                     	;# 
   790     0012                     	;# 
   791     0013                     	;# 
   792     0014                     	;# 
   793     0015                     	;# 
   794     0015                     	;# 
   795     0016                     	;# 
   796     0017                     	;# 
   797     0018                     	;# 
   798     0019                     	;# 
   799     001A                     	;# 
   800     001B                     	;# 
   801     001B                     	;# 
   802     001C                     	;# 
   803     001D                     	;# 
   804     001E                     	;# 
   805     001F                     	;# 
   806     0081                     	;# 
   807     0085                     	;# 
   808     0086                     	;# 
   809     0087                     	;# 
   810     0088                     	;# 
   811     0089                     	;# 
   812     008C                     	;# 
   813     008D                     	;# 
   814     008E                     	;# 
   815     008F                     	;# 
   816     0090                     	;# 
   817     0091                     	;# 
   818     0092                     	;# 
   819     0093                     	;# 
   820     0093                     	;# 
   821     0093                     	;# 
   822     0094                     	;# 
   823     0095                     	;# 
   824     0096                     	;# 
   825     0097                     	;# 
   826     0098                     	;# 
   827     0099                     	;# 
   828     009A                     	;# 
   829     009B                     	;# 
   830     009C                     	;# 
   831     009D                     	;# 
   832     009E                     	;# 
   833     009F                     	;# 
   834     0105                     	;# 
   835     0107                     	;# 
   836     0108                     	;# 
   837     0109                     	;# 
   838     010C                     	;# 
   839     010C                     	;# 
   840     010D                     	;# 
   841     010E                     	;# 
   842     010F                     	;# 
   843     0185                     	;# 
   844     0187                     	;# 
   845     0188                     	;# 
   846     0189                     	;# 
   847     018C                     	;# 
   848     018D                     	;# 
   849     0000                     	;# 
   850     0001                     	;# 
   851     0002                     	;# 
   852     0003                     	;# 
   853     0004                     	;# 
   854     0005                     	;# 
   855     0006                     	;# 
   856     0007                     	;# 
   857     0008                     	;# 
   858     0009                     	;# 
   859     000A                     	;# 
   860     000B                     	;# 
   861     000C                     	;# 
   862     000D                     	;# 
   863     000E                     	;# 
   864     000E                     	;# 
   865     000F                     	;# 
   866     0010                     	;# 
   867     0011                     	;# 
   868     0012                     	;# 
   869     0013                     	;# 
   870     0014                     	;# 
   871     0015                     	;# 
   872     0015                     	;# 
   873     0016                     	;# 
   874     0017                     	;# 
   875     0018                     	;# 
   876     0019                     	;# 
   877     001A                     	;# 
   878     001B                     	;# 
   879     001B                     	;# 
   880     001C                     	;# 
   881     001D                     	;# 
   882     001E                     	;# 
   883     001F                     	;# 
   884     0081                     	;# 
   885     0085                     	;# 
   886     0086                     	;# 
   887     0087                     	;# 
   888     0088                     	;# 
   889     0089                     	;# 
   890     008C                     	;# 
   891     008D                     	;# 
   892     008E                     	;# 
   893     008F                     	;# 
   894     0090                     	;# 
   895     0091                     	;# 
   896     0092                     	;# 
   897     0093                     	;# 
   898     0093                     	;# 
   899     0093                     	;# 
   900     0094                     	;# 
   901     0095                     	;# 
   902     0096                     	;# 
   903     0097                     	;# 
   904     0098                     	;# 
   905     0099                     	;# 
   906     009A                     	;# 
   907     009B                     	;# 
   908     009C                     	;# 
   909     009D                     	;# 
   910     009E                     	;# 
   911     009F                     	;# 
   912     0105                     	;# 
   913     0107                     	;# 
   914     0108                     	;# 
   915     0109                     	;# 
   916     010C                     	;# 
   917     010C                     	;# 
   918     010D                     	;# 
   919     010E                     	;# 
   920     010F                     	;# 
   921     0185                     	;# 
   922     0187                     	;# 
   923     0188                     	;# 
   924     0189                     	;# 
   925     018C                     	;# 
   926     018D                     	;# 
   927     0000                     	;# 
   928     0001                     	;# 
   929     0002                     	;# 
   930     0003                     	;# 
   931     0004                     	;# 
   932     0005                     	;# 
   933     0006                     	;# 
   934     0007                     	;# 
   935     0008                     	;# 
   936     0009                     	;# 
   937     000A                     	;# 
   938     000B                     	;# 
   939     000C                     	;# 
   940     000D                     	;# 
   941     000E                     	;# 
   942     000E                     	;# 
   943     000F                     	;# 
   944     0010                     	;# 
   945     0011                     	;# 
   946     0012                     	;# 
   947     0013                     	;# 
   948     0014                     	;# 
   949     0015                     	;# 
   950     0015                     	;# 
   951     0016                     	;# 
   952     0017                     	;# 
   953     0018                     	;# 
   954     0019                     	;# 
   955     001A                     	;# 
   956     001B                     	;# 
   957     001B                     	;# 
   958     001C                     	;# 
   959     001D                     	;# 
   960     001E                     	;# 
   961     001F                     	;# 
   962     0081                     	;# 
   963     0085                     	;# 
   964     0086                     	;# 
   965     0087                     	;# 
   966     0088                     	;# 
   967     0089                     	;# 
   968     008C                     	;# 
   969     008D                     	;# 
   970     008E                     	;# 
   971     008F                     	;# 
   972     0090                     	;# 
   973     0091                     	;# 
   974     0092                     	;# 
   975     0093                     	;# 
   976     0093                     	;# 
   977     0093                     	;# 
   978     0094                     	;# 
   979     0095                     	;# 
   980     0096                     	;# 
   981     0097                     	;# 
   982     0098                     	;# 
   983     0099                     	;# 
   984     009A                     	;# 
   985     009B                     	;# 
   986     009C                     	;# 
   987     009D                     	;# 
   988     009E                     	;# 
   989     009F                     	;# 
   990     0105                     	;# 
   991     0107                     	;# 
   992     0108                     	;# 
   993     0109                     	;# 
   994     010C                     	;# 
   995     010C                     	;# 
   996     010D                     	;# 
   997     010E                     	;# 
   998     010F                     	;# 
   999     0185                     	;# 
  1000     0187                     	;# 
  1001     0188                     	;# 
  1002     0189                     	;# 
  1003     018C                     	;# 
  1004     018D                     	;# 
  1005     0000                     	;# 
  1006     0001                     	;# 
  1007     0002                     	;# 
  1008     0003                     	;# 
  1009     0004                     	;# 
  1010     0005                     	;# 
  1011     0006                     	;# 
  1012     0007                     	;# 
  1013     0008                     	;# 
  1014     0009                     	;# 
  1015     000A                     	;# 
  1016     000B                     	;# 
  1017     000C                     	;# 
  1018     000D                     	;# 
  1019     000E                     	;# 
  1020     000E                     	;# 
  1021     000F                     	;# 
  1022     0010                     	;# 
  1023     0011                     	;# 
  1024     0012                     	;# 
  1025     0013                     	;# 
  1026     0014                     	;# 
  1027     0015                     	;# 
  1028     0015                     	;# 
  1029     0016                     	;# 
  1030     0017                     	;# 
  1031     0018                     	;# 
  1032     0019                     	;# 
  1033     001A                     	;# 
  1034     001B                     	;# 
  1035     001B                     	;# 
  1036     001C                     	;# 
  1037     001D                     	;# 
  1038     001E                     	;# 
  1039     001F                     	;# 
  1040     0081                     	;# 
  1041     0085                     	;# 
  1042     0086                     	;# 
  1043     0087                     	;# 
  1044     0088                     	;# 
  1045     0089                     	;# 
  1046     008C                     	;# 
  1047     008D                     	;# 
  1048     008E                     	;# 
  1049     008F                     	;# 
  1050     0090                     	;# 
  1051     0091                     	;# 
  1052     0092                     	;# 
  1053     0093                     	;# 
  1054     0093                     	;# 
  1055     0093                     	;# 
  1056     0094                     	;# 
  1057     0095                     	;# 
  1058     0096                     	;# 
  1059     0097                     	;# 
  1060     0098                     	;# 
  1061     0099                     	;# 
  1062     009A                     	;# 
  1063     009B                     	;# 
  1064     009C                     	;# 
  1065     009D                     	;# 
  1066     009E                     	;# 
  1067     009F                     	;# 
  1068     0105                     	;# 
  1069     0107                     	;# 
  1070     0108                     	;# 
  1071     0109                     	;# 
  1072     010C                     	;# 
  1073     010C                     	;# 
  1074     010D                     	;# 
  1075     010E                     	;# 
  1076     010F                     	;# 
  1077     0185                     	;# 
  1078     0187                     	;# 
  1079     0188                     	;# 
  1080     0189                     	;# 
  1081     018C                     	;# 
  1082     018D                     	;# 
  1083     0000                     	;# 
  1084     0001                     	;# 
  1085     0002                     	;# 
  1086     0003                     	;# 
  1087     0004                     	;# 
  1088     0005                     	;# 
  1089     0006                     	;# 
  1090     0007                     	;# 
  1091     0008                     	;# 
  1092     0009                     	;# 
  1093     000A                     	;# 
  1094     000B                     	;# 
  1095     000C                     	;# 
  1096     000D                     	;# 
  1097     000E                     	;# 
  1098     000E                     	;# 
  1099     000F                     	;# 
  1100     0010                     	;# 
  1101     0011                     	;# 
  1102     0012                     	;# 
  1103     0013                     	;# 
  1104     0014                     	;# 
  1105     0015                     	;# 
  1106     0015                     	;# 
  1107     0016                     	;# 
  1108     0017                     	;# 
  1109     0018                     	;# 
  1110     0019                     	;# 
  1111     001A                     	;# 
  1112     001B                     	;# 
  1113     001B                     	;# 
  1114     001C                     	;# 
  1115     001D                     	;# 
  1116     001E                     	;# 
  1117     001F                     	;# 
  1118     0081                     	;# 
  1119     0085                     	;# 
  1120     0086                     	;# 
  1121     0087                     	;# 
  1122     0088                     	;# 
  1123     0089                     	;# 
  1124     008C                     	;# 
  1125     008D                     	;# 
  1126     008E                     	;# 
  1127     008F                     	;# 
  1128     0090                     	;# 
  1129     0091                     	;# 
  1130     0092                     	;# 
  1131     0093                     	;# 
  1132     0093                     	;# 
  1133     0093                     	;# 
  1134     0094                     	;# 
  1135     0095                     	;# 
  1136     0096                     	;# 
  1137     0097                     	;# 
  1138     0098                     	;# 
  1139     0099                     	;# 
  1140     009A                     	;# 
  1141     009B                     	;# 
  1142     009C                     	;# 
  1143     009D                     	;# 
  1144     009E                     	;# 
  1145     009F                     	;# 
  1146     0105                     	;# 
  1147     0107                     	;# 
  1148     0108                     	;# 
  1149     0109                     	;# 
  1150     010C                     	;# 
  1151     010C                     	;# 
  1152     010D                     	;# 
  1153     010E                     	;# 
  1154     010F                     	;# 
  1155     0185                     	;# 
  1156     0187                     	;# 
  1157     0188                     	;# 
  1158     0189                     	;# 
  1159     018C                     	;# 
  1160     018D                     	;# 
  1161     0000                     	;# 
  1162     0001                     	;# 
  1163     0002                     	;# 
  1164     0003                     	;# 
  1165     0004                     	;# 
  1166     0005                     	;# 
  1167     0006                     	;# 
  1168     0007                     	;# 
  1169     0008                     	;# 
  1170     0009                     	;# 
  1171     000A                     	;# 
  1172     000B                     	;# 
  1173     000C                     	;# 
  1174     000D                     	;# 
  1175     000E                     	;# 
  1176     000E                     	;# 
  1177     000F                     	;# 
  1178     0010                     	;# 
  1179     0011                     	;# 
  1180     0012                     	;# 
  1181     0013                     	;# 
  1182     0014                     	;# 
  1183     0015                     	;# 
  1184     0015                     	;# 
  1185     0016                     	;# 
  1186     0017                     	;# 
  1187     0018                     	;# 
  1188     0019                     	;# 
  1189     001A                     	;# 
  1190     001B                     	;# 
  1191     001B                     	;# 
  1192     001C                     	;# 
  1193     001D                     	;# 
  1194     001E                     	;# 
  1195     001F                     	;# 
  1196     0081                     	;# 
  1197     0085                     	;# 
  1198     0086                     	;# 
  1199     0087                     	;# 
  1200     0088                     	;# 
  1201     0089                     	;# 
  1202     008C                     	;# 
  1203     008D                     	;# 
  1204     008E                     	;# 
  1205     008F                     	;# 
  1206     0090                     	;# 
  1207     0091                     	;# 
  1208     0092                     	;# 
  1209     0093                     	;# 
  1210     0093                     	;# 
  1211     0093                     	;# 
  1212     0094                     	;# 
  1213     0095                     	;# 
  1214     0096                     	;# 
  1215     0097                     	;# 
  1216     0098                     	;# 
  1217     0099                     	;# 
  1218     009A                     	;# 
  1219     009B                     	;# 
  1220     009C                     	;# 
  1221     009D                     	;# 
  1222     009E                     	;# 
  1223     009F                     	;# 
  1224     0105                     	;# 
  1225     0107                     	;# 
  1226     0108                     	;# 
  1227     0109                     	;# 
  1228     010C                     	;# 
  1229     010C                     	;# 
  1230     010D                     	;# 
  1231     010E                     	;# 
  1232     010F                     	;# 
  1233     0185                     	;# 
  1234     0187                     	;# 
  1235     0188                     	;# 
  1236     0189                     	;# 
  1237     018C                     	;# 
  1238     018D                     	;# 
  1239     0000                     	;# 
  1240     0001                     	;# 
  1241     0002                     	;# 
  1242     0003                     	;# 
  1243     0004                     	;# 
  1244     0005                     	;# 
  1245     0006                     	;# 
  1246     0007                     	;# 
  1247     0008                     	;# 
  1248     0009                     	;# 
  1249     000A                     	;# 
  1250     000B                     	;# 
  1251     000C                     	;# 
  1252     000D                     	;# 
  1253     000E                     	;# 
  1254     000E                     	;# 
  1255     000F                     	;# 
  1256     0010                     	;# 
  1257     0011                     	;# 
  1258     0012                     	;# 
  1259     0013                     	;# 
  1260     0014                     	;# 
  1261     0015                     	;# 
  1262     0015                     	;# 
  1263     0016                     	;# 
  1264     0017                     	;# 
  1265     0018                     	;# 
  1266     0019                     	;# 
  1267     001A                     	;# 
  1268     001B                     	;# 
  1269     001B                     	;# 
  1270     001C                     	;# 
  1271     001D                     	;# 
  1272     001E                     	;# 
  1273     001F                     	;# 
  1274     0081                     	;# 
  1275     0085                     	;# 
  1276     0086                     	;# 
  1277     0087                     	;# 
  1278     0088                     	;# 
  1279     0089                     	;# 
  1280     008C                     	;# 
  1281     008D                     	;# 
  1282     008E                     	;# 
  1283     008F                     	;# 
  1284     0090                     	;# 
  1285     0091                     	;# 
  1286     0092                     	;# 
  1287     0093                     	;# 
  1288     0093                     	;# 
  1289     0093                     	;# 
  1290     0094                     	;# 
  1291     0095                     	;# 
  1292     0096                     	;# 
  1293     0097                     	;# 
  1294     0098                     	;# 
  1295     0099                     	;# 
  1296     009A                     	;# 
  1297     009B                     	;# 
  1298     009C                     	;# 
  1299     009D                     	;# 
  1300     009E                     	;# 
  1301     009F                     	;# 
  1302     0105                     	;# 
  1303     0107                     	;# 
  1304     0108                     	;# 
  1305     0109                     	;# 
  1306     010C                     	;# 
  1307     010C                     	;# 
  1308     010D                     	;# 
  1309     010E                     	;# 
  1310     010F                     	;# 
  1311     0185                     	;# 
  1312     0187                     	;# 
  1313     0188                     	;# 
  1314     0189                     	;# 
  1315     018C                     	;# 
  1316     018D                     	;# 
  1317     0000                     	;# 
  1318     0001                     	;# 
  1319     0002                     	;# 
  1320     0003                     	;# 
  1321     0004                     	;# 
  1322     0005                     	;# 
  1323     0006                     	;# 
  1324     0007                     	;# 
  1325     0008                     	;# 
  1326     0009                     	;# 
  1327     000A                     	;# 
  1328     000B                     	;# 
  1329     000C                     	;# 
  1330     000D                     	;# 
  1331     000E                     	;# 
  1332     000E                     	;# 
  1333     000F                     	;# 
  1334     0010                     	;# 
  1335     0011                     	;# 
  1336     0012                     	;# 
  1337     0013                     	;# 
  1338     0014                     	;# 
  1339     0015                     	;# 
  1340     0015                     	;# 
  1341     0016                     	;# 
  1342     0017                     	;# 
  1343     0018                     	;# 
  1344     0019                     	;# 
  1345     001A                     	;# 
  1346     001B                     	;# 
  1347     001B                     	;# 
  1348     001C                     	;# 
  1349     001D                     	;# 
  1350     001E                     	;# 
  1351     001F                     	;# 
  1352     0081                     	;# 
  1353     0085                     	;# 
  1354     0086                     	;# 
  1355     0087                     	;# 
  1356     0088                     	;# 
  1357     0089                     	;# 
  1358     008C                     	;# 
  1359     008D                     	;# 
  1360     008E                     	;# 
  1361     008F                     	;# 
  1362     0090                     	;# 
  1363     0091                     	;# 
  1364     0092                     	;# 
  1365     0093                     	;# 
  1366     0093                     	;# 
  1367     0093                     	;# 
  1368     0094                     	;# 
  1369     0095                     	;# 
  1370     0096                     	;# 
  1371     0097                     	;# 
  1372     0098                     	;# 
  1373     0099                     	;# 
  1374     009A                     	;# 
  1375     009B                     	;# 
  1376     009C                     	;# 
  1377     009D                     	;# 
  1378     009E                     	;# 
  1379     009F                     	;# 
  1380     0105                     	;# 
  1381     0107                     	;# 
  1382     0108                     	;# 
  1383     0109                     	;# 
  1384     010C                     	;# 
  1385     010C                     	;# 
  1386     010D                     	;# 
  1387     010E                     	;# 
  1388     010F                     	;# 
  1389     0185                     	;# 
  1390     0187                     	;# 
  1391     0188                     	;# 
  1392     0189                     	;# 
  1393     018C                     	;# 
  1394     018D                     	;# 
  1395     0000                     	;# 
  1396     0001                     	;# 
  1397     0002                     	;# 
  1398     0003                     	;# 
  1399     0004                     	;# 
  1400     0005                     	;# 
  1401     0006                     	;# 
  1402     0007                     	;# 
  1403     0008                     	;# 
  1404     0009                     	;# 
  1405     000A                     	;# 
  1406     000B                     	;# 
  1407     000C                     	;# 
  1408     000D                     	;# 
  1409     000E                     	;# 
  1410     000E                     	;# 
  1411     000F                     	;# 
  1412     0010                     	;# 
  1413     0011                     	;# 
  1414     0012                     	;# 
  1415     0013                     	;# 
  1416     0014                     	;# 
  1417     0015                     	;# 
  1418     0015                     	;# 
  1419     0016                     	;# 
  1420     0017                     	;# 
  1421     0018                     	;# 
  1422     0019                     	;# 
  1423     001A                     	;# 
  1424     001B                     	;# 
  1425     001B                     	;# 
  1426     001C                     	;# 
  1427     001D                     	;# 
  1428     001E                     	;# 
  1429     001F                     	;# 
  1430     0081                     	;# 
  1431     0085                     	;# 
  1432     0086                     	;# 
  1433     0087                     	;# 
  1434     0088                     	;# 
  1435     0089                     	;# 
  1436     008C                     	;# 
  1437     008D                     	;# 
  1438     008E                     	;# 
  1439     008F                     	;# 
  1440     0090                     	;# 
  1441     0091                     	;# 
  1442     0092                     	;# 
  1443     0093                     	;# 
  1444     0093                     	;# 
  1445     0093                     	;# 
  1446     0094                     	;# 
  1447     0095                     	;# 
  1448     0096                     	;# 
  1449     0097                     	;# 
  1450     0098                     	;# 
  1451     0099                     	;# 
  1452     009A                     	;# 
  1453     009B                     	;# 
  1454     009C                     	;# 
  1455     009D                     	;# 
  1456     009E                     	;# 
  1457     009F                     	;# 
  1458     0105                     	;# 
  1459     0107                     	;# 
  1460     0108                     	;# 
  1461     0109                     	;# 
  1462     010C                     	;# 
  1463     010C                     	;# 
  1464     010D                     	;# 
  1465     010E                     	;# 
  1466     010F                     	;# 
  1467     0185                     	;# 
  1468     0187                     	;# 
  1469     0188                     	;# 
  1470     0189                     	;# 
  1471     018C                     	;# 
  1472     018D                     	;# 
  1473     0000                     	;# 
  1474     0001                     	;# 
  1475     0002                     	;# 
  1476     0003                     	;# 
  1477     0004                     	;# 
  1478     0005                     	;# 
  1479     0006                     	;# 
  1480     0007                     	;# 
  1481     0008                     	;# 
  1482     0009                     	;# 
  1483     000A                     	;# 
  1484     000B                     	;# 
  1485     000C                     	;# 
  1486     000D                     	;# 
  1487     000E                     	;# 
  1488     000E                     	;# 
  1489     000F                     	;# 
  1490     0010                     	;# 
  1491     0011                     	;# 
  1492     0012                     	;# 
  1493     0013                     	;# 
  1494     0014                     	;# 
  1495     0015                     	;# 
  1496     0015                     	;# 
  1497     0016                     	;# 
  1498     0017                     	;# 
  1499     0018                     	;# 
  1500     0019                     	;# 
  1501     001A                     	;# 
  1502     001B                     	;# 
  1503     001B                     	;# 
  1504     001C                     	;# 
  1505     001D                     	;# 
  1506     001E                     	;# 
  1507     001F                     	;# 
  1508     0081                     	;# 
  1509     0085                     	;# 
  1510     0086                     	;# 
  1511     0087                     	;# 
  1512     0088                     	;# 
  1513     0089                     	;# 
  1514     008C                     	;# 
  1515     008D                     	;# 
  1516     008E                     	;# 
  1517     008F                     	;# 
  1518     0090                     	;# 
  1519     0091                     	;# 
  1520     0092                     	;# 
  1521     0093                     	;# 
  1522     0093                     	;# 
  1523     0093                     	;# 
  1524     0094                     	;# 
  1525     0095                     	;# 
  1526     0096                     	;# 
  1527     0097                     	;# 
  1528     0098                     	;# 
  1529     0099                     	;# 
  1530     009A                     	;# 
  1531     009B                     	;# 
  1532     009C                     	;# 
  1533     009D                     	;# 
  1534     009E                     	;# 
  1535     009F                     	;# 
  1536     0105                     	;# 
  1537     0107                     	;# 
  1538     0108                     	;# 
  1539     0109                     	;# 
  1540     010C                     	;# 
  1541     010C                     	;# 
  1542     010D                     	;# 
  1543     010E                     	;# 
  1544     010F                     	;# 
  1545     0185                     	;# 
  1546     0187                     	;# 
  1547     0188                     	;# 
  1548     0189                     	;# 
  1549     018C                     	;# 
  1550     018D                     	;# 
  1551     0000                     	;# 
  1552     0001                     	;# 
  1553     0002                     	;# 
  1554     0003                     	;# 
  1555     0004                     	;# 
  1556     0005                     	;# 
  1557     0006                     	;# 
  1558     0007                     	;# 
  1559     0008                     	;# 
  1560     0009                     	;# 
  1561     000A                     	;# 
  1562     000B                     	;# 
  1563     000C                     	;# 
  1564     000D                     	;# 
  1565     000E                     	;# 
  1566     000E                     	;# 
  1567     000F                     	;# 
  1568     0010                     	;# 
  1569     0011                     	;# 
  1570     0012                     	;# 
  1571     0013                     	;# 
  1572     0014                     	;# 
  1573     0015                     	;# 
  1574     0015                     	;# 
  1575     0016                     	;# 
  1576     0017                     	;# 
  1577     0018                     	;# 
  1578     0019                     	;# 
  1579     001A                     	;# 
  1580     001B                     	;# 
  1581     001B                     	;# 
  1582     001C                     	;# 
  1583     001D                     	;# 
  1584     001E                     	;# 
  1585     001F                     	;# 
  1586     0081                     	;# 
  1587     0085                     	;# 
  1588     0086                     	;# 
  1589     0087                     	;# 
  1590     0088                     	;# 
  1591     0089                     	;# 
  1592     008C                     	;# 
  1593     008D                     	;# 
  1594     008E                     	;# 
  1595     008F                     	;# 
  1596     0090                     	;# 
  1597     0091                     	;# 
  1598     0092                     	;# 
  1599     0093                     	;# 
  1600     0093                     	;# 
  1601     0093                     	;# 
  1602     0094                     	;# 
  1603     0095                     	;# 
  1604     0096                     	;# 
  1605     0097                     	;# 
  1606     0098                     	;# 
  1607     0099                     	;# 
  1608     009A                     	;# 
  1609     009B                     	;# 
  1610     009C                     	;# 
  1611     009D                     	;# 
  1612     009E                     	;# 
  1613     009F                     	;# 
  1614     0105                     	;# 
  1615     0107                     	;# 
  1616     0108                     	;# 
  1617     0109                     	;# 
  1618     010C                     	;# 
  1619     010C                     	;# 
  1620     010D                     	;# 
  1621     010E                     	;# 
  1622     010F                     	;# 
  1623     0185                     	;# 
  1624     0187                     	;# 
  1625     0188                     	;# 
  1626     0189                     	;# 
  1627     018C                     	;# 
  1628     018D                     	;# 
  1629     0000                     	;# 
  1630     0001                     	;# 
  1631     0002                     	;# 
  1632     0003                     	;# 
  1633     0004                     	;# 
  1634     0005                     	;# 
  1635     0006                     	;# 
  1636     0007                     	;# 
  1637     0008                     	;# 
  1638     0009                     	;# 
  1639     000A                     	;# 
  1640     000B                     	;# 
  1641     000C                     	;# 
  1642     000D                     	;# 
  1643     000E                     	;# 
  1644     000E                     	;# 
  1645     000F                     	;# 
  1646     0010                     	;# 
  1647     0011                     	;# 
  1648     0012                     	;# 
  1649     0013                     	;# 
  1650     0014                     	;# 
  1651     0015                     	;# 
  1652     0015                     	;# 
  1653     0016                     	;# 
  1654     0017                     	;# 
  1655     0018                     	;# 
  1656     0019                     	;# 
  1657     001A                     	;# 
  1658     001B                     	;# 
  1659     001B                     	;# 
  1660     001C                     	;# 
  1661     001D                     	;# 
  1662     001E                     	;# 
  1663     001F                     	;# 
  1664     0081                     	;# 
  1665     0085                     	;# 
  1666     0086                     	;# 
  1667     0087                     	;# 
  1668     0088                     	;# 
  1669     0089                     	;# 
  1670     008C                     	;# 
  1671     008D                     	;# 
  1672     008E                     	;# 
  1673     008F                     	;# 
  1674     0090                     	;# 
  1675     0091                     	;# 
  1676     0092                     	;# 
  1677     0093                     	;# 
  1678     0093                     	;# 
  1679     0093                     	;# 
  1680     0094                     	;# 
  1681     0095                     	;# 
  1682     0096                     	;# 
  1683     0097                     	;# 
  1684     0098                     	;# 
  1685     0099                     	;# 
  1686     009A                     	;# 
  1687     009B                     	;# 
  1688     009C                     	;# 
  1689     009D                     	;# 
  1690     009E                     	;# 
  1691     009F                     	;# 
  1692     0105                     	;# 
  1693     0107                     	;# 
  1694     0108                     	;# 
  1695     0109                     	;# 
  1696     010C                     	;# 
  1697     010C                     	;# 
  1698     010D                     	;# 
  1699     010E                     	;# 
  1700     010F                     	;# 
  1701     0185                     	;# 
  1702     0187                     	;# 
  1703     0188                     	;# 
  1704     0189                     	;# 
  1705     018C                     	;# 
  1706     018D                     	;# 
  1707     0000                     	;# 
  1708     0001                     	;# 
  1709     0002                     	;# 
  1710     0003                     	;# 
  1711     0004                     	;# 
  1712     0005                     	;# 
  1713     0006                     	;# 
  1714     0007                     	;# 
  1715     0008                     	;# 
  1716     0009                     	;# 
  1717     000A                     	;# 
  1718     000B                     	;# 
  1719     000C                     	;# 
  1720     000D                     	;# 
  1721     000E                     	;# 
  1722     000E                     	;# 
  1723     000F                     	;# 
  1724     0010                     	;# 
  1725     0011                     	;# 
  1726     0012                     	;# 
  1727     0013                     	;# 
  1728     0014                     	;# 
  1729     0015                     	;# 
  1730     0015                     	;# 
  1731     0016                     	;# 
  1732     0017                     	;# 
  1733     0018                     	;# 
  1734     0019                     	;# 
  1735     001A                     	;# 
  1736     001B                     	;# 
  1737     001B                     	;# 
  1738     001C                     	;# 
  1739     001D                     	;# 
  1740     001E                     	;# 
  1741     001F                     	;# 
  1742     0081                     	;# 
  1743     0085                     	;# 
  1744     0086                     	;# 
  1745     0087                     	;# 
  1746     0088                     	;# 
  1747     0089                     	;# 
  1748     008C                     	;# 
  1749     008D                     	;# 
  1750     008E                     	;# 
  1751     008F                     	;# 
  1752     0090                     	;# 
  1753     0091                     	;# 
  1754     0092                     	;# 
  1755     0093                     	;# 
  1756     0093                     	;# 
  1757     0093                     	;# 
  1758     0094                     	;# 
  1759     0095                     	;# 
  1760     0096                     	;# 
  1761     0097                     	;# 
  1762     0098                     	;# 
  1763     0099                     	;# 
  1764     009A                     	;# 
  1765     009B                     	;# 
  1766     009C                     	;# 
  1767     009D                     	;# 
  1768     009E                     	;# 
  1769     009F                     	;# 
  1770     0105                     	;# 
  1771     0107                     	;# 
  1772     0108                     	;# 
  1773     0109                     	;# 
  1774     010C                     	;# 
  1775     010C                     	;# 
  1776     010D                     	;# 
  1777     010E                     	;# 
  1778     010F                     	;# 
  1779     0185                     	;# 
  1780     0187                     	;# 
  1781     0188                     	;# 
  1782     0189                     	;# 
  1783     018C                     	;# 
  1784     018D                     	;# 
  1785     0000                     	;# 
  1786     0001                     	;# 
  1787     0002                     	;# 
  1788     0003                     	;# 
  1789     0004                     	;# 
  1790     0005                     	;# 
  1791     0006                     	;# 
  1792     0007                     	;# 
  1793     0008                     	;# 
  1794     0009                     	;# 
  1795     000A                     	;# 
  1796     000B                     	;# 
  1797     000C                     	;# 
  1798     000D                     	;# 
  1799     000E                     	;# 
  1800     000E                     	;# 
  1801     000F                     	;# 
  1802     0010                     	;# 
  1803     0011                     	;# 
  1804     0012                     	;# 
  1805     0013                     	;# 
  1806     0014                     	;# 
  1807     0015                     	;# 
  1808     0015                     	;# 
  1809     0016                     	;# 
  1810     0017                     	;# 
  1811     0018                     	;# 
  1812     0019                     	;# 
  1813     001A                     	;# 
  1814     001B                     	;# 
  1815     001B                     	;# 
  1816     001C                     	;# 
  1817     001D                     	;# 
  1818     001E                     	;# 
  1819     001F                     	;# 
  1820     0081                     	;# 
  1821     0085                     	;# 
  1822     0086                     	;# 
  1823     0087                     	;# 
  1824     0088                     	;# 
  1825     0089                     	;# 
  1826     008C                     	;# 
  1827     008D                     	;# 
  1828     008E                     	;# 
  1829     008F                     	;# 
  1830     0090                     	;# 
  1831     0091                     	;# 
  1832     0092                     	;# 
  1833     0093                     	;# 
  1834     0093                     	;# 
  1835     0093                     	;# 
  1836     0094                     	;# 
  1837     0095                     	;# 
  1838     0096                     	;# 
  1839     0097                     	;# 
  1840     0098                     	;# 
  1841     0099                     	;# 
  1842     009A                     	;# 
  1843     009B                     	;# 
  1844     009C                     	;# 
  1845     009D                     	;# 
  1846     009E                     	;# 
  1847     009F                     	;# 
  1848     0105                     	;# 
  1849     0107                     	;# 
  1850     0108                     	;# 
  1851     0109                     	;# 
  1852     010C                     	;# 
  1853     010C                     	;# 
  1854     010D                     	;# 
  1855     010E                     	;# 
  1856     010F                     	;# 
  1857     0185                     	;# 
  1858     0187                     	;# 
  1859     0188                     	;# 
  1860     0189                     	;# 
  1861     018C                     	;# 
  1862     018D                     	;# 
  1863     0000                     	;# 
  1864     0001                     	;# 
  1865     0002                     	;# 
  1866     0003                     	;# 
  1867     0004                     	;# 
  1868     0005                     	;# 
  1869     0006                     	;# 
  1870     0007                     	;# 
  1871     0008                     	;# 
  1872     0009                     	;# 
  1873     000A                     	;# 
  1874     000B                     	;# 
  1875     000C                     	;# 
  1876     000D                     	;# 
  1877     000E                     	;# 
  1878     000E                     	;# 
  1879     000F                     	;# 
  1880     0010                     	;# 
  1881     0011                     	;# 
  1882     0012                     	;# 
  1883     0013                     	;# 
  1884     0014                     	;# 
  1885     0015                     	;# 
  1886     0015                     	;# 
  1887     0016                     	;# 
  1888     0017                     	;# 
  1889     0018                     	;# 
  1890     0019                     	;# 
  1891     001A                     	;# 
  1892     001B                     	;# 
  1893     001B                     	;# 
  1894     001C                     	;# 
  1895     001D                     	;# 
  1896     001E                     	;# 
  1897     001F                     	;# 
  1898     0081                     	;# 
  1899     0085                     	;# 
  1900     0086                     	;# 
  1901     0087                     	;# 
  1902     0088                     	;# 
  1903     0089                     	;# 
  1904     008C                     	;# 
  1905     008D                     	;# 
  1906     008E                     	;# 
  1907     008F                     	;# 
  1908     0090                     	;# 
  1909     0091                     	;# 
  1910     0092                     	;# 
  1911     0093                     	;# 
  1912     0093                     	;# 
  1913     0093                     	;# 
  1914     0094                     	;# 
  1915     0095                     	;# 
  1916     0096                     	;# 
  1917     0097                     	;# 
  1918     0098                     	;# 
  1919     0099                     	;# 
  1920     009A                     	;# 
  1921     009B                     	;# 
  1922     009C                     	;# 
  1923     009D                     	;# 
  1924     009E                     	;# 
  1925     009F                     	;# 
  1926     0105                     	;# 
  1927     0107                     	;# 
  1928     0108                     	;# 
  1929     0109                     	;# 
  1930     010C                     	;# 
  1931     010C                     	;# 
  1932     010D                     	;# 
  1933     010E                     	;# 
  1934     010F                     	;# 
  1935     0185                     	;# 
  1936     0187                     	;# 
  1937     0188                     	;# 
  1938     0189                     	;# 
  1939     018C                     	;# 
  1940     018D                     	;# 
  1941     0000                     	;# 
  1942     0001                     	;# 
  1943     0002                     	;# 
  1944     0003                     	;# 
  1945     0004                     	;# 
  1946     0005                     	;# 
  1947     0006                     	;# 
  1948     0007                     	;# 
  1949     0008                     	;# 
  1950     0009                     	;# 
  1951     000A                     	;# 
  1952     000B                     	;# 
  1953     000C                     	;# 
  1954     000D                     	;# 
  1955     000E                     	;# 
  1956     000E                     	;# 
  1957     000F                     	;# 
  1958     0010                     	;# 
  1959     0011                     	;# 
  1960     0012                     	;# 
  1961     0013                     	;# 
  1962     0014                     	;# 
  1963     0015                     	;# 
  1964     0015                     	;# 
  1965     0016                     	;# 
  1966     0017                     	;# 
  1967     0018                     	;# 
  1968     0019                     	;# 
  1969     001A                     	;# 
  1970     001B                     	;# 
  1971     001B                     	;# 
  1972     001C                     	;# 
  1973     001D                     	;# 
  1974     001E                     	;# 
  1975     001F                     	;# 
  1976     0081                     	;# 
  1977     0085                     	;# 
  1978     0086                     	;# 
  1979     0087                     	;# 
  1980     0088                     	;# 
  1981     0089                     	;# 
  1982     008C                     	;# 
  1983     008D                     	;# 
  1984     008E                     	;# 
  1985     008F                     	;# 
  1986     0090                     	;# 
  1987     0091                     	;# 
  1988     0092                     	;# 
  1989     0093                     	;# 
  1990     0093                     	;# 
  1991     0093                     	;# 
  1992     0094                     	;# 
  1993     0095                     	;# 
  1994     0096                     	;# 
  1995     0097                     	;# 
  1996     0098                     	;# 
  1997     0099                     	;# 
  1998     009A                     	;# 
  1999     009B                     	;# 
  2000     009C                     	;# 
  2001     009D                     	;# 
  2002     009E                     	;# 
  2003     009F                     	;# 
  2004     0105                     	;# 
  2005     0107                     	;# 
  2006     0108                     	;# 
  2007     0109                     	;# 
  2008     010C                     	;# 
  2009     010C                     	;# 
  2010     010D                     	;# 
  2011     010E                     	;# 
  2012     010F                     	;# 
  2013     0185                     	;# 
  2014     0187                     	;# 
  2015     0188                     	;# 
  2016     0189                     	;# 
  2017     018C                     	;# 
  2018     018D                     	;# 
  2019                           
  2020                           	psect	idataCOMMON
  2021     05D3                     __pidataCOMMON:
  2022                           
  2023                           ;initializer for _LCD_display_control
  2024     05D3  340C               	retlw	12
  2025                           
  2026                           ;initializer for _LCD_entry_mode
  2027     05D4  3406               	retlw	6
  2028                           
  2029                           	psect	strings
  2030     0036                     __pstrings:
  2031     0036                     stringtab:
  2032     0036                     __stringtab:
  2033     0036                     stringcode:	
  2034                           ;	String table - string pointers are 1 byte each
  2035                           
  2036     0036                     stringdir:
  2037     0036  3000               	movlw	high stringdir
  2038     0037  008A               	movwf	10
  2039     0038  0804               	movf	4,w
  2040     0039  0A84               	incf	4,f
  2041     003A  0782               	addwf	2,f
  2042     003B                     __stringbase:
  2043     003B  3400               	retlw	0
  2044     003C                     __end_of__stringtab:
  2045     003C                     _KeyPadChar:
  2046     003C  3431               	retlw	49
  2047     003D  3432               	retlw	50
  2048     003E  3433               	retlw	51
  2049     003F  3441               	retlw	65
  2050     0040  3434               	retlw	52
  2051     0041  3435               	retlw	53
  2052     0042  3436               	retlw	54
  2053     0043  3442               	retlw	66
  2054     0044  3437               	retlw	55
  2055     0045  3438               	retlw	56
  2056     0046  3439               	retlw	57
  2057     0047  3443               	retlw	67
  2058     0048  342A               	retlw	42
  2059     0049  3430               	retlw	48
  2060     004A  3423               	retlw	35
  2061     004B  3444               	retlw	68
  2062     004C  343F               	retlw	63
  2063     004D                     __end_of_KeyPadChar:
  2064     0019                     _TXREG	set	25
  2065     0018                     _RCSTAbits	set	24
  2066     001A                     _RCREG	set	26
  2067     000C                     _PIR1bits	set	12
  2068     0006                     _PORTBbits	set	6
  2069     0008                     _PORTDbits	set	8
  2070     0037                     _RB7	set	55
  2071     0036                     _RB6	set	54
  2072     0035                     _RB5	set	53
  2073     0034                     _RB4	set	52
  2074     0033                     _RB3	set	51
  2075     0032                     _RB2	set	50
  2076     0031                     _RB1	set	49
  2077     0030                     _RB0	set	48
  2078     00C4                     _CREN	set	196
  2079     00C1                     _OERR	set	193
  2080     0064                     _TXIF	set	100
  2081     005F                     _GIE	set	95
  2082     005E                     _PEIE	set	94
  2083     0065                     _RCIF	set	101
  2084     008C                     _PIE1bits	set	140
  2085     0099                     _SPBRG	set	153
  2086     0098                     _TXSTAbits	set	152
  2087     0086                     _TRISBbits	set	134
  2088     0088                     _TRISDbits	set	136
  2089     0437                     _TRISB7	set	1079
  2090     0436                     _TRISB6	set	1078
  2091     0435                     _TRISB5	set	1077
  2092     0434                     _TRISB4	set	1076
  2093     0433                     _TRISB3	set	1075
  2094     0432                     _TRISB2	set	1074
  2095     0431                     _TRISB1	set	1073
  2096     0430                     _TRISB0	set	1072
  2097     043F                     _TRISC7	set	1087
  2098     043E                     _TRISC6	set	1086
  2099     004D                     STR_6:
  2100     004D  3444               	retlw	68	;'D'
  2101     004E  346F               	retlw	111	;'o'
  2102     004F  346F               	retlw	111	;'o'
  2103     0050  3472               	retlw	114	;'r'
  2104     0051  3420               	retlw	32	;' '
  2105     0052  344F               	retlw	79	;'O'
  2106     0053  3470               	retlw	112	;'p'
  2107     0054  3465               	retlw	101	;'e'
  2108     0055  346E               	retlw	110	;'n'
  2109     0056  3465               	retlw	101	;'e'
  2110     0057  3464               	retlw	100	;'d'
  2111     0058  3420               	retlw	32	;' '
  2112     0059  3442               	retlw	66	;'B'
  2113     005A  3465               	retlw	101	;'e'
  2114     005B  3466               	retlw	102	;'f'
  2115     005C  346F               	retlw	111	;'o'
  2116     005D  3472               	retlw	114	;'r'
  2117     005E  3465               	retlw	101	;'e'
  2118     005F  3400               	retlw	0
  2119     0060                     STR_9:
  2120     0060  3444               	retlw	68	;'D'
  2121     0061  346F               	retlw	111	;'o'
  2122     0062  346F               	retlw	111	;'o'
  2123     0063  3472               	retlw	114	;'r'
  2124     0064  3420               	retlw	32	;' '
  2125     0065  3443               	retlw	67	;'C'
  2126     0066  346C               	retlw	108	;'l'
  2127     0067  346F               	retlw	111	;'o'
  2128     0068  3473               	retlw	115	;'s'
  2129     0069  3465               	retlw	101	;'e'
  2130     006A  3464               	retlw	100	;'d'
  2131     006B  3420               	retlw	32	;' '
  2132     006C  3442               	retlw	66	;'B'
  2133     006D  3465               	retlw	101	;'e'
  2134     006E  3466               	retlw	102	;'f'
  2135     006F  346F               	retlw	111	;'o'
  2136     0070  3472               	retlw	114	;'r'
  2137     0071  3465               	retlw	101	;'e'
  2138     0072  3400               	retlw	0
  2139     0073                     STR_3:
  2140     0073  3450               	retlw	80	;'P'
  2141     0074  3449               	retlw	73	;'I'
  2142     0075  3443               	retlw	67	;'C'
  2143     0076  3420               	retlw	32	;' '
  2144     0077  3449               	retlw	73	;'I'
  2145     0078  346E               	retlw	110	;'n'
  2146     0079  3469               	retlw	105	;'i'
  2147     007A  3474               	retlw	116	;'t'
  2148     007B  3469               	retlw	105	;'i'
  2149     007C  3461               	retlw	97	;'a'
  2150     007D  346C               	retlw	108	;'l'
  2151     007E  3469               	retlw	105	;'i'
  2152     007F  347A               	retlw	122	;'z'
  2153     0080  3465               	retlw	101	;'e'
  2154     0081  3464               	retlw	100	;'d'
  2155     0082  3400               	retlw	0
  2156     0083                     STR_4:
  2157     0083  3444               	retlw	68	;'D'
  2158     0084  346F               	retlw	111	;'o'
  2159     0085  346F               	retlw	111	;'o'
  2160     0086  3472               	retlw	114	;'r'
  2161     0087  3420               	retlw	32	;' '
  2162     0088  344F               	retlw	79	;'O'
  2163     0089  3470               	retlw	112	;'p'
  2164     008A  3465               	retlw	101	;'e'
  2165     008B  346E               	retlw	110	;'n'
  2166     008C  3469               	retlw	105	;'i'
  2167     008D  346E               	retlw	110	;'n'
  2168     008E  3467               	retlw	103	;'g'
  2169     008F  3400               	retlw	0
  2170     0090                     STR_7:
  2171     0090  3444               	retlw	68	;'D'
  2172     0091  346F               	retlw	111	;'o'
  2173     0092  346F               	retlw	111	;'o'
  2174     0093  3472               	retlw	114	;'r'
  2175     0094  3420               	retlw	32	;' '
  2176     0095  3443               	retlw	67	;'C'
  2177     0096  346C               	retlw	108	;'l'
  2178     0097  346F               	retlw	111	;'o'
  2179     0098  3473               	retlw	115	;'s'
  2180     0099  3469               	retlw	105	;'i'
  2181     009A  346E               	retlw	110	;'n'
  2182     009B  3467               	retlw	103	;'g'
  2183     009C  3400               	retlw	0
  2184     009D                     STR_5:
  2185     009D  3444               	retlw	68	;'D'
  2186     009E  346F               	retlw	111	;'o'
  2187     009F  346F               	retlw	111	;'o'
  2188     00A0  3472               	retlw	114	;'r'
  2189     00A1  3420               	retlw	32	;' '
  2190     00A2  344F               	retlw	79	;'O'
  2191     00A3  3470               	retlw	112	;'p'
  2192     00A4  3465               	retlw	101	;'e'
  2193     00A5  346E               	retlw	110	;'n'
  2194     00A6  3465               	retlw	101	;'e'
  2195     00A7  3464               	retlw	100	;'d'
  2196     00A8  3400               	retlw	0
  2197     00A9                     STR_8:
  2198     00A9  3444               	retlw	68	;'D'
  2199     00AA  346F               	retlw	111	;'o'
  2200     00AB  346F               	retlw	111	;'o'
  2201     00AC  3472               	retlw	114	;'r'
  2202     00AD  3420               	retlw	32	;' '
  2203     00AE  3443               	retlw	67	;'C'
  2204     00AF  346C               	retlw	108	;'l'
  2205     00B0  346F               	retlw	111	;'o'
  2206     00B1  3473               	retlw	115	;'s'
  2207     00B2  3465               	retlw	101	;'e'
  2208     00B3  3464               	retlw	100	;'d'
  2209     00B4  3400               	retlw	0
  2210     00B5                     STR_2:
  2211     00B5  3443               	retlw	67	;'C'
  2212     00B6  346C               	retlw	108	;'l'
  2213     00B7  346F               	retlw	111	;'o'
  2214     00B8  3473               	retlw	115	;'s'
  2215     00B9  3465               	retlw	101	;'e'
  2216     00BA  3420               	retlw	32	;' '
  2217     00BB  3444               	retlw	68	;'D'
  2218     00BC  346F               	retlw	111	;'o'
  2219     00BD  346F               	retlw	111	;'o'
  2220     00BE  3472               	retlw	114	;'r'
  2221     00BF  3400               	retlw	0
  2222     00C0                     STR_1:
  2223     00C0  344F               	retlw	79	;'O'
  2224     00C1  3470               	retlw	112	;'p'
  2225     00C2  3465               	retlw	101	;'e'
  2226     00C3  346E               	retlw	110	;'n'
  2227     00C4  3420               	retlw	32	;' '
  2228     00C5  3444               	retlw	68	;'D'
  2229     00C6  346F               	retlw	111	;'o'
  2230     00C7  346F               	retlw	111	;'o'
  2231     00C8  3472               	retlw	114	;'r'
  2232     00C9  3400               	retlw	0
  2233     00CA                     STR_11:
  2234     00CA  3443               	retlw	67	;'C'
  2235     00CB  346C               	retlw	108	;'l'
  2236     00CC  346F               	retlw	111	;'o'
  2237     00CD  3473               	retlw	115	;'s'
  2238     00CE  3465               	retlw	101	;'e'
  2239     00CF  3400               	retlw	0
  2240     00D0                     STR_10:
  2241     00D0  344F               	retlw	79	;'O'
  2242     00D1  3470               	retlw	112	;'p'
  2243     00D2  3465               	retlw	101	;'e'
  2244     00D3  346E               	retlw	110	;'n'
  2245     00D4  3400               	retlw	0
  2246     00D5                     STR_12:
  2247     00D5  340D               	retlw	13
  2248     00D6  340A               	retlw	10
  2249     00D7  3400               	retlw	0
  2250                           
  2251                           	psect	cinit
  2252     0015                     start_initialization:	
  2253                           ; #config settings
  2254                           
  2255     0015                     __initialization:
  2256                           
  2257                           ; Initialize objects allocated to COMMON
  2258     0015  120A  118A  25D3  120A  118A  	fcall	__pidataCOMMON	;fetch initializer
  2259     001A  00FC               	movwf	__pdataCOMMON& (0+127)
  2260     001B  120A  118A  25D4  120A  118A  	fcall	__pidataCOMMON+1	;fetch initializer
  2261     0020  00FD               	movwf	(__pdataCOMMON+1)& (0+127)
  2262                           
  2263                           ; Clear objects allocated to BANK1
  2264     0021  1383               	bcf	3,7	;select IRP bank0
  2265     0022  30A0               	movlw	low __pbssBANK1
  2266     0023  0084               	movwf	4
  2267     0024  30C0               	movlw	low (__pbssBANK1+32)
  2268     0025  120A  118A  25CB  120A  118A  	fcall	clear_ram0
  2269                           
  2270                           ; Clear objects allocated to BANK0
  2271     002A  3020               	movlw	low __pbssBANK0
  2272     002B  0084               	movwf	4
  2273     002C  3048               	movlw	low (__pbssBANK0+40)
  2274     002D  120A  118A  25CB  120A  118A  	fcall	clear_ram0
  2275     0032                     end_of_initialization:	
  2276                           ;End of C runtime variable initialization code
  2277                           
  2278     0032                     __end_of__initialization:
  2279     0032  0183               	clrf	3
  2280     0033  120A  118A  2BA8   	ljmp	_main	;jump to C main() function
  2281                           
  2282                           	psect	dataCOMMON
  2283     007C                     __pdataCOMMON:
  2284     007C                     _LCD_display_control:
  2285     007C                     	ds	1
  2286     007D                     _LCD_entry_mode:
  2287     007D                     	ds	1
  2288                           
  2289                           	psect	bssBANK0
  2290     0020                     __pbssBANK0:
  2291     0020                     modff@F522:
  2292     0020                     	ds	4
  2293     0024                     _StatusChange:
  2294     0024                     	ds	2
  2295     0026                     _doorStatus:
  2296     0026                     	ds	2
  2297     0028                     _pos:
  2298     0028                     	ds	2
  2299     002A                     _StringReceive:
  2300     002A                     	ds	30
  2301                           
  2302                           	psect	bssBANK1
  2303     00A0                     __pbssBANK1:
  2304     00A0                     _StringDisplay:
  2305     00A0                     	ds	32
  2306                           
  2307                           	psect	clrtext
  2308     05CB                     clear_ram0:	
  2309                           ;	Called with FSR containing the base address, and
  2310                           ;	W with the last address+1
  2311                           
  2312     05CB  0064               	clrwdt	;clear the watchdog before getting into this loop
  2313     05CC                     clrloop0:
  2314     05CC  0180               	clrf	0	;clear RAM location pointed to by FSR
  2315     05CD  0A84               	incf	4,f	;increment pointer
  2316     05CE  0604               	xorwf	4,w	;XOR with final address
  2317     05CF  1903               	btfsc	3,2	;have we reached the end yet?
  2318     05D0  3400               	retlw	0	;all done for this memory range, return
  2319     05D1  0604               	xorwf	4,w	;XOR again to restore value
  2320     05D2  2DCC               	goto	clrloop0	;do the next byte
  2321                           
  2322                           	psect	cstackCOMMON
  2323     0070                     __pcstackCOMMON:
  2324     0070                     ?_LCD_write_command:
  2325     0070                     ?_LCD_write_data:	
  2326                           ; 1 bytes @ 0x0
  2327                           
  2328     0070                     ?_LCD_pulse_clock:	
  2329                           ; 1 bytes @ 0x0
  2330                           
  2331     0070                     ?_picInit:	
  2332                           ; 1 bytes @ 0x0
  2333                           
  2334     0070                     ?_openDoor:	
  2335                           ; 1 bytes @ 0x0
  2336                           
  2337     0070                     ?_closeDoor:	
  2338                           ; 1 bytes @ 0x0
  2339                           
  2340     0070                     ?_InitUART:	
  2341                           ; 1 bytes @ 0x0
  2342                           
  2343     0070                     ?_ClearStringReceive:	
  2344                           ; 1 bytes @ 0x0
  2345                           
  2346     0070                     ??_ClearStringReceive:	
  2347                           ; 1 bytes @ 0x0
  2348                           
  2349     0070                     ?_strchr:	
  2350                           ; 1 bytes @ 0x0
  2351                           
  2352     0070                     ?_LCD_clear:	
  2353                           ; 1 bytes @ 0x0
  2354                           
  2355     0070                     ?_LCD_init:	
  2356                           ; 1 bytes @ 0x0
  2357                           
  2358     0070                     ?_LCD_write_string:	
  2359                           ; 1 bytes @ 0x0
  2360                           
  2361     0070                     ?_main:	
  2362                           ; 1 bytes @ 0x0
  2363                           
  2364     0070                     ?_ISR:	
  2365                           ; 1 bytes @ 0x0
  2366                           
  2367     0070                     ?_strlen:	
  2368                           ; 1 bytes @ 0x0
  2369                           
  2370     0070                     ?_strncmp:	
  2371                           ; 2 bytes @ 0x0
  2372                           
  2373     0070                     strncmp@r:	
  2374                           ; 2 bytes @ 0x0
  2375                           
  2376     0070                     ClearStringReceive@i:	
  2377                           ; 1 bytes @ 0x0
  2378                           
  2379     0070                     strchr@c:	
  2380                           ; 2 bytes @ 0x0
  2381                           
  2382                           
  2383                           ; 2 bytes @ 0x0
  2384     0070                     	ds	1
  2385     0071                     strncmp@n:
  2386                           
  2387                           ; 2 bytes @ 0x1
  2388     0071                     	ds	1
  2389     0072                     ??_strlen:
  2390     0072                     ??_strchr:	
  2391                           ; 1 bytes @ 0x2
  2392                           
  2393     0072                     strchr@s:	
  2394                           ; 1 bytes @ 0x2
  2395                           
  2396     0072                     strlen@a:	
  2397                           ; 1 bytes @ 0x2
  2398                           
  2399                           
  2400                           ; 1 bytes @ 0x2
  2401     0072                     	ds	1
  2402     0073                     ??_strncmp:
  2403     0073                     strlen@s:	
  2404                           ; 1 bytes @ 0x3
  2405                           
  2406                           
  2407                           ; 1 bytes @ 0x3
  2408     0073                     	ds	2
  2409     0075                     strncmp@l:
  2410                           
  2411                           ; 1 bytes @ 0x5
  2412     0075                     	ds	1
  2413     0076                     ?_strstr:
  2414     0076                     strstr@n:	
  2415                           ; 1 bytes @ 0x6
  2416                           
  2417                           
  2418                           ; 1 bytes @ 0x6
  2419     0076                     	ds	1
  2420     0077                     ??_strstr:
  2421                           
  2422                           ; 1 bytes @ 0x7
  2423     0077                     	ds	2
  2424     0079                     strstr@nl:
  2425                           
  2426                           ; 2 bytes @ 0x9
  2427     0079                     	ds	2
  2428     007B                     strstr@h:
  2429                           
  2430                           ; 1 bytes @ 0xB
  2431     007B                     	ds	1
  2432                           
  2433                           	psect	cstackBANK0
  2434     0048                     __pcstackBANK0:
  2435     0048                     ??_ISR:
  2436                           
  2437                           ; 1 bytes @ 0x0
  2438     0048                     	ds	4
  2439     004C                     ??_LCD_pulse_clock:
  2440     004C                     ??_InitUART:	
  2441                           ; 1 bytes @ 0x4
  2442                           
  2443                           
  2444                           ; 1 bytes @ 0x4
  2445     004C                     	ds	1
  2446     004D                     ??_LCD_write_command:
  2447     004D                     ??_LCD_write_data:	
  2448                           ; 1 bytes @ 0x5
  2449                           
  2450                           
  2451                           ; 1 bytes @ 0x5
  2452     004D                     	ds	2
  2453     004F                     LCD_write_command@command:
  2454     004F                     LCD_write_data@data:	
  2455                           ; 1 bytes @ 0x7
  2456                           
  2457                           
  2458                           ; 1 bytes @ 0x7
  2459     004F                     	ds	1
  2460     0050                     ?_LCD_cursor_set:
  2461     0050                     ??_LCD_clear:	
  2462                           ; 1 bytes @ 0x8
  2463                           
  2464     0050                     ??_LCD_write_string:	
  2465                           ; 1 bytes @ 0x8
  2466                           
  2467     0050                     LCD_cursor_set@column:	
  2468                           ; 1 bytes @ 0x8
  2469                           
  2470     0050                     LCD_write_string@i:	
  2471                           ; 1 bytes @ 0x8
  2472                           
  2473                           
  2474                           ; 1 bytes @ 0x8
  2475     0050                     	ds	1
  2476     0051                     ??_LCD_cursor_set:
  2477     0051                     ??_LCD_init:	
  2478                           ; 1 bytes @ 0x9
  2479                           
  2480     0051                     LCD_cursor_set@row:	
  2481                           ; 1 bytes @ 0x9
  2482                           
  2483     0051                     LCD_write_string@string:	
  2484                           ; 1 bytes @ 0x9
  2485                           
  2486                           
  2487                           ; 1 bytes @ 0x9
  2488     0051                     	ds	1
  2489     0052                     ??_openDoor:
  2490     0052                     ??_closeDoor:	
  2491                           ; 1 bytes @ 0xA
  2492                           
  2493                           
  2494                           ; 1 bytes @ 0xA
  2495     0052                     	ds	1
  2496     0053                     ??_picInit:
  2497                           
  2498                           ; 1 bytes @ 0xB
  2499     0053                     	ds	3
  2500     0056                     ??_main:
  2501                           
  2502                           ; 1 bytes @ 0xE
  2503     0056                     	ds	3
  2504                           
  2505                           	psect	maintext
  2506     03A8                     __pmaintext:	
  2507 ;;
  2508 ;;Main: autosize = 0, tempsize = 3, incstack = 0, save=0
  2509 ;;
  2510 ;; *************** function _main *****************
  2511 ;; Defined at:
  2512 ;;		line 68 in file "main.c"
  2513 ;; Parameters:    Size  Location     Type
  2514 ;;		None
  2515 ;; Auto vars:     Size  Location     Type
  2516 ;;		None
  2517 ;; Return value:  Size  Location     Type
  2518 ;;                  1    wreg      void 
  2519 ;; Registers used:
  2520 ;;		wreg, fsr0l, fsr0h, status,2, status,0, btemp+1, pclath, cstack
  2521 ;; Tracked objects:
  2522 ;;		On entry : B00/0
  2523 ;;		On exit  : 0/0
  2524 ;;		Unchanged: 0/0
  2525 ;; Data sizes:     COMMON   BANK0   BANK1   BANK3   BANK2
  2526 ;;      Params:         0       0       0       0       0
  2527 ;;      Locals:         0       0       0       0       0
  2528 ;;      Temps:          0       3       0       0       0
  2529 ;;      Totals:         0       3       0       0       0
  2530 ;;Total ram usage:        3 bytes
  2531 ;; Hardware stack levels required when called: 9
  2532 ;; This function calls:
  2533 ;;		_LCD_clear
  2534 ;;		_LCD_cursor_set
  2535 ;;		_LCD_write_string
  2536 ;;		_closeDoor
  2537 ;;		_openDoor
  2538 ;;		_picInit
  2539 ;; This function is called by:
  2540 ;;		Startup code after reset
  2541 ;; This function uses a non-reentrant model
  2542 ;;
  2543                           
  2544     03A8                     _main:	
  2545                           ;psect for function _main
  2546                           
  2547     03A8                     l2074:	
  2548                           ;incstack = 0
  2549 ;; hardware stack exceeded
  2550                           ; Regs used in _main: [wreg-fsr0h+status,2+status,0+btemp+1+pclath+cstack]
  2551                           
  2552                           
  2553                           ;main.c: 69:     picInit();
  2554     03A8  120A  118A  24AE  120A  118A  	fcall	_picInit
  2555     03AD                     l2076:
  2556                           
  2557                           ;main.c: 70:     LCD_clear();
  2558     03AD  120A  118A  258F  120A  118A  	fcall	_LCD_clear
  2559     03B2                     l2078:
  2560                           
  2561                           ;main.c: 73:         LCD_clear();
  2562     03B2  120A  118A  258F  120A  118A  	fcall	_LCD_clear
  2563     03B7                     l2080:
  2564                           
  2565                           ;main.c: 74:         LCD_cursor_set(2, 1);
  2566     03B7  1283               	bcf	3,5	;RP0=0, select bank0
  2567     03B8  1303               	bcf	3,6	;RP1=0, select bank0
  2568     03B9  01D0               	clrf	LCD_cursor_set@column
  2569     03BA  0AD0               	incf	LCD_cursor_set@column,f
  2570     03BB  3002               	movlw	2
  2571     03BC  120A  118A  24E6  120A  118A  	fcall	_LCD_cursor_set
  2572     03C1                     l2082:
  2573                           
  2574                           ;main.c: 75:         LCD_write_string("Open Door");
  2575     03C1  3085               	movlw	(low ((STR_1-__stringbase)| (0+32768)))& (0+255)
  2576     03C2  120A  118A  2517  120A  118A  	fcall	_LCD_write_string
  2577     03C7                     l2084:
  2578                           
  2579                           ;main.c: 76:         openDoor();
  2580     03C7  120A  118A  22E4  120A  118A  	fcall	_openDoor
  2581     03CC                     l2086:
  2582                           
  2583                           ;main.c: 77:         _delay((unsigned long)((5000)*(4000000/4000.0)));
  2584     03CC  301A               	movlw	26
  2585     03CD  1283               	bcf	3,5	;RP0=0, select bank0
  2586     03CE  1303               	bcf	3,6	;RP1=0, select bank0
  2587     03CF  00D8               	movwf	??_main+2
  2588     03D0  305E               	movlw	94
  2589     03D1  00D7               	movwf	??_main+1
  2590     03D2  306D               	movlw	109
  2591     03D3  00D6               	movwf	??_main
  2592     03D4                     u1557:
  2593     03D4  0BD6               	decfsz	??_main,f
  2594     03D5  2BD4               	goto	u1557
  2595     03D6  0BD7               	decfsz	??_main+1,f
  2596     03D7  2BD4               	goto	u1557
  2597     03D8  0BD8               	decfsz	??_main+2,f
  2598     03D9  2BD4               	goto	u1557
  2599     03DA  2BDB               	nop2
  2600     03DB                     l2088:
  2601                           
  2602                           ;main.c: 78:         LCD_clear();
  2603     03DB  120A  118A  258F  120A  118A  	fcall	_LCD_clear
  2604     03E0                     l2090:
  2605                           
  2606                           ;main.c: 79:         LCD_cursor_set(2, 1);
  2607     03E0  1283               	bcf	3,5	;RP0=0, select bank0
  2608     03E1  1303               	bcf	3,6	;RP1=0, select bank0
  2609     03E2  01D0               	clrf	LCD_cursor_set@column
  2610     03E3  0AD0               	incf	LCD_cursor_set@column,f
  2611     03E4  3002               	movlw	2
  2612     03E5  120A  118A  24E6  120A  118A  	fcall	_LCD_cursor_set
  2613     03EA                     l2092:
  2614                           
  2615                           ;main.c: 80:         LCD_write_string("Close Door");
  2616     03EA  307A               	movlw	(low ((STR_2-__stringbase)| (0+32768)))& (0+255)
  2617     03EB  120A  118A  2517  120A  118A  	fcall	_LCD_write_string
  2618     03F0                     l2094:
  2619                           
  2620                           ;main.c: 81:         closeDoor();
  2621     03F0  120A  118A  2347  120A  118A  	fcall	_closeDoor
  2622     03F5                     l2096:
  2623                           
  2624                           ;main.c: 82:         _delay((unsigned long)((5000)*(4000000/4000.0)));
  2625     03F5  301A               	movlw	26
  2626     03F6  1283               	bcf	3,5	;RP0=0, select bank0
  2627     03F7  1303               	bcf	3,6	;RP1=0, select bank0
  2628     03F8  00D8               	movwf	??_main+2
  2629     03F9  305E               	movlw	94
  2630     03FA  00D7               	movwf	??_main+1
  2631     03FB  306D               	movlw	109
  2632     03FC  00D6               	movwf	??_main
  2633     03FD                     u1567:
  2634     03FD  0BD6               	decfsz	??_main,f
  2635     03FE  2BFD               	goto	u1567
  2636     03FF  0BD7               	decfsz	??_main+1,f
  2637     0400  2BFD               	goto	u1567
  2638     0401  0BD8               	decfsz	??_main+2,f
  2639     0402  2BFD               	goto	u1567
  2640     0403  2C04               	nop2
  2641     0404  2BB2               	goto	l2078
  2642     0405  120A  118A  2812   	ljmp	start
  2643     0408                     __end_of_main:
  2644                           
  2645                           	psect	text1
  2646     04AE                     __ptext1:	
  2647 ;; *************** function _picInit *****************
  2648 ;; Defined at:
  2649 ;;		line 93 in file "main.c"
  2650 ;; Parameters:    Size  Location     Type
  2651 ;;		None
  2652 ;; Auto vars:     Size  Location     Type
  2653 ;;		None
  2654 ;; Return value:  Size  Location     Type
  2655 ;;                  1    wreg      void 
  2656 ;; Registers used:
  2657 ;;		wreg, fsr0l, fsr0h, status,2, status,0, btemp+1, pclath, cstack
  2658 ;; Tracked objects:
  2659 ;;		On entry : 0/0
  2660 ;;		On exit  : 0/0
  2661 ;;		Unchanged: 0/0
  2662 ;; Data sizes:     COMMON   BANK0   BANK1   BANK3   BANK2
  2663 ;;      Params:         0       0       0       0       0
  2664 ;;      Locals:         0       0       0       0       0
  2665 ;;      Temps:          0       3       0       0       0
  2666 ;;      Totals:         0       3       0       0       0
  2667 ;;Total ram usage:        3 bytes
  2668 ;; Hardware stack levels used: 1
  2669 ;; Hardware stack levels required when called: 8
  2670 ;; This function calls:
  2671 ;;		_InitUART
  2672 ;;		_LCD_clear
  2673 ;;		_LCD_cursor_set
  2674 ;;		_LCD_init
  2675 ;;		_LCD_write_string
  2676 ;; This function is called by:
  2677 ;;		_main
  2678 ;; This function uses a non-reentrant model
  2679 ;;
  2680                           
  2681     04AE                     _picInit:	
  2682                           ;psect for function _picInit
  2683                           
  2684     04AE                     l1780:	
  2685                           ;incstack = 0
  2686 ;; hardware stack exceeded
  2687                           ; Regs used in _picInit: [wreg-fsr0h+status,2+status,0+btemp+1+pclath+cstack]
  2688                           
  2689                           
  2690                           ;main.c: 94:     TRISBbits.TRISB7 = 1;
  2691     04AE  1683               	bsf	3,5	;RP0=1, select bank1
  2692     04AF  1303               	bcf	3,6	;RP1=0, select bank1
  2693     04B0  1786               	bsf	6,7	;volatile
  2694                           
  2695                           ;main.c: 95:     TRISBbits.TRISB6 = 0;
  2696     04B1  1306               	bcf	6,6	;volatile
  2697                           
  2698                           ;main.c: 96:     TRISBbits.TRISB5 = 0;
  2699     04B2  1286               	bcf	6,5	;volatile
  2700     04B3                     l1782:
  2701                           
  2702                           ;main.c: 98:     InitUART();
  2703     04B3  120A  118A  2577  120A  118A  	fcall	_InitUART
  2704     04B8                     l1784:
  2705                           
  2706                           ;main.c: 99:     LCD_init();
  2707     04B8  120A  118A  2200  120A  118A  	fcall	_LCD_init
  2708     04BD                     l1786:
  2709                           
  2710                           ;main.c: 100:     LCD_clear();
  2711     04BD  120A  118A  258F  120A  118A  	fcall	_LCD_clear
  2712     04C2                     l1788:
  2713                           
  2714                           ;main.c: 101:     LCD_cursor_set(1, 1);
  2715     04C2  1283               	bcf	3,5	;RP0=0, select bank0
  2716     04C3  1303               	bcf	3,6	;RP1=0, select bank0
  2717     04C4  01D0               	clrf	LCD_cursor_set@column
  2718     04C5  0AD0               	incf	LCD_cursor_set@column,f
  2719     04C6  3001               	movlw	1
  2720     04C7  120A  118A  24E6  120A  118A  	fcall	_LCD_cursor_set
  2721     04CC                     l1790:
  2722                           
  2723                           ;main.c: 102:     LCD_write_string("PIC Initialized");
  2724     04CC  3038               	movlw	(low ((STR_3-__stringbase)| (0+32768)))& (0+255)
  2725     04CD  120A  118A  2517  120A  118A  	fcall	_LCD_write_string
  2726     04D2                     l1792:
  2727                           
  2728                           ;main.c: 103:     _delay((unsigned long)((1000)*(4000000/4000.0)));
  2729     04D2  3006               	movlw	6
  2730     04D3  1283               	bcf	3,5	;RP0=0, select bank0
  2731     04D4  1303               	bcf	3,6	;RP1=0, select bank0
  2732     04D5  00D5               	movwf	??_picInit+2
  2733     04D6  3013               	movlw	19
  2734     04D7  00D4               	movwf	??_picInit+1
  2735     04D8  30AD               	movlw	173
  2736     04D9  00D3               	movwf	??_picInit
  2737     04DA                     u1577:
  2738     04DA  0BD3               	decfsz	??_picInit,f
  2739     04DB  2CDA               	goto	u1577
  2740     04DC  0BD4               	decfsz	??_picInit+1,f
  2741     04DD  2CDA               	goto	u1577
  2742     04DE  0BD5               	decfsz	??_picInit+2,f
  2743     04DF  2CDA               	goto	u1577
  2744     04E0                     l1794:
  2745                           
  2746                           ;main.c: 104:     LCD_clear();
  2747     04E0  120A  118A  258F  120A  118A  	fcall	_LCD_clear
  2748     04E5                     l245:
  2749     04E5  0008               	return
  2750     04E6                     __end_of_picInit:
  2751                           
  2752                           	psect	text2
  2753     0200                     __ptext2:	
  2754 ;; *************** function _LCD_init *****************
  2755 ;; Defined at:
  2756 ;;		line 18 in file "LCD_init.c"
  2757 ;; Parameters:    Size  Location     Type
  2758 ;;		None
  2759 ;; Auto vars:     Size  Location     Type
  2760 ;;		None
  2761 ;; Return value:  Size  Location     Type
  2762 ;;                  1    wreg      void 
  2763 ;; Registers used:
  2764 ;;		wreg, status,2, status,0, pclath, cstack
  2765 ;; Tracked objects:
  2766 ;;		On entry : 0/0
  2767 ;;		On exit  : 0/0
  2768 ;;		Unchanged: 0/0
  2769 ;; Data sizes:     COMMON   BANK0   BANK1   BANK3   BANK2
  2770 ;;      Params:         0       0       0       0       0
  2771 ;;      Locals:         0       0       0       0       0
  2772 ;;      Temps:          0       2       0       0       0
  2773 ;;      Totals:         0       2       0       0       0
  2774 ;;Total ram usage:        2 bytes
  2775 ;; Hardware stack levels used: 1
  2776 ;; Hardware stack levels required when called: 7
  2777 ;; This function calls:
  2778 ;;		_LCD_clear
  2779 ;;		_LCD_pulse_clock
  2780 ;;		_LCD_write_command
  2781 ;; This function is called by:
  2782 ;;		_picInit
  2783 ;; This function uses a non-reentrant model
  2784 ;;
  2785                           
  2786     0200                     _LCD_init:	
  2787                           ;psect for function _LCD_init
  2788                           
  2789     0200                     l1666:	
  2790                           ;incstack = 0
  2791 ;; hardware stack exceeded
  2792                           ; Regs used in _LCD_init: [wreg+status,2+status,0+pclath+cstack]
  2793                           
  2794                           
  2795                           ;LCD_init.c: 21:     TRISDbits.TRISD2 = 0; PORTDbits.RD2 = 0;
  2796     0200  1683               	bsf	3,5	;RP0=1, select bank1
  2797     0201  1303               	bcf	3,6	;RP1=0, select bank1
  2798     0202  1108               	bcf	8,2	;volatile
  2799     0203  1283               	bcf	3,5	;RP0=0, select bank0
  2800     0204  1303               	bcf	3,6	;RP1=0, select bank0
  2801     0205  1108               	bcf	8,2	;volatile
  2802                           
  2803                           ;LCD_init.c: 22:     TRISDbits.TRISD3 = 0; PORTDbits.RD3 = 0;
  2804     0206  1683               	bsf	3,5	;RP0=1, select bank1
  2805     0207  1303               	bcf	3,6	;RP1=0, select bank1
  2806     0208  1188               	bcf	8,3	;volatile
  2807     0209  1283               	bcf	3,5	;RP0=0, select bank0
  2808     020A  1303               	bcf	3,6	;RP1=0, select bank0
  2809     020B  1188               	bcf	8,3	;volatile
  2810                           
  2811                           ;LCD_init.c: 23:     TRISDbits.TRISD4 = 0; PORTDbits.RD4 = 0;
  2812     020C  1683               	bsf	3,5	;RP0=1, select bank1
  2813     020D  1303               	bcf	3,6	;RP1=0, select bank1
  2814     020E  1208               	bcf	8,4	;volatile
  2815     020F  1283               	bcf	3,5	;RP0=0, select bank0
  2816     0210  1303               	bcf	3,6	;RP1=0, select bank0
  2817     0211  1208               	bcf	8,4	;volatile
  2818                           
  2819                           ;LCD_init.c: 24:     TRISDbits.TRISD5 = 0; PORTDbits.RD5 = 0;
  2820     0212  1683               	bsf	3,5	;RP0=1, select bank1
  2821     0213  1303               	bcf	3,6	;RP1=0, select bank1
  2822     0214  1288               	bcf	8,5	;volatile
  2823     0215  1283               	bcf	3,5	;RP0=0, select bank0
  2824     0216  1303               	bcf	3,6	;RP1=0, select bank0
  2825     0217  1288               	bcf	8,5	;volatile
  2826                           
  2827                           ;LCD_init.c: 25:     TRISDbits.TRISD6 = 0; PORTDbits.RD6 = 0;
  2828     0218  1683               	bsf	3,5	;RP0=1, select bank1
  2829     0219  1303               	bcf	3,6	;RP1=0, select bank1
  2830     021A  1308               	bcf	8,6	;volatile
  2831     021B  1283               	bcf	3,5	;RP0=0, select bank0
  2832     021C  1303               	bcf	3,6	;RP1=0, select bank0
  2833     021D  1308               	bcf	8,6	;volatile
  2834                           
  2835                           ;LCD_init.c: 26:     TRISDbits.TRISD7 = 0; PORTDbits.RD7 = 0;
  2836     021E  1683               	bsf	3,5	;RP0=1, select bank1
  2837     021F  1303               	bcf	3,6	;RP1=0, select bank1
  2838     0220  1388               	bcf	8,7	;volatile
  2839     0221  1283               	bcf	3,5	;RP0=0, select bank0
  2840     0222  1303               	bcf	3,6	;RP1=0, select bank0
  2841     0223  1388               	bcf	8,7	;volatile
  2842     0224                     l1668:
  2843                           
  2844                           ;LCD_init.c: 33:     _delay((unsigned long)((60)*(4000000/4000.0)));
  2845     0224  304E               	movlw	78
  2846     0225  1283               	bcf	3,5	;RP0=0, select bank0
  2847     0226  1303               	bcf	3,6	;RP1=0, select bank0
  2848     0227  00D2               	movwf	??_LCD_init+1
  2849     0228  30EA               	movlw	234
  2850     0229  00D1               	movwf	??_LCD_init
  2851     022A                     u1587:
  2852     022A  0BD1               	decfsz	??_LCD_init,f
  2853     022B  2A2A               	goto	u1587
  2854     022C  0BD2               	decfsz	??_LCD_init+1,f
  2855     022D  2A2A               	goto	u1587
  2856     022E  0000               	nop
  2857     022F                     l1670:
  2858                           
  2859                           ;LCD_init.c: 36:     PORTDbits.RD7 = 0; PORTDbits.RD6 = 0; PORTDbits.RD5 = 1; PORTDbits.
      +                          RD4 = 1;
  2860     022F  1283               	bcf	3,5	;RP0=0, select bank0
  2861     0230  1303               	bcf	3,6	;RP1=0, select bank0
  2862     0231  1388               	bcf	8,7	;volatile
  2863     0232                     l1672:
  2864     0232  1308               	bcf	8,6	;volatile
  2865     0233                     l1674:
  2866     0233  1688               	bsf	8,5	;volatile
  2867     0234                     l1676:
  2868     0234  1608               	bsf	8,4	;volatile
  2869     0235                     l1678:
  2870                           
  2871                           ;LCD_init.c: 39:     LCD_pulse_clock();
  2872     0235  120A  118A  25BD  120A  118A  	fcall	_LCD_pulse_clock
  2873     023A                     l1680:
  2874                           
  2875                           ;LCD_init.c: 42:     _delay((unsigned long)((6)*(4000000/4000.0)));
  2876     023A  3008               	movlw	8
  2877     023B  1283               	bcf	3,5	;RP0=0, select bank0
  2878     023C  1303               	bcf	3,6	;RP1=0, select bank0
  2879     023D  00D2               	movwf	??_LCD_init+1
  2880     023E  30C9               	movlw	201
  2881     023F  00D1               	movwf	??_LCD_init
  2882     0240                     u1597:
  2883     0240  0BD1               	decfsz	??_LCD_init,f
  2884     0241  2A40               	goto	u1597
  2885     0242  0BD2               	decfsz	??_LCD_init+1,f
  2886     0243  2A40               	goto	u1597
  2887                           
  2888                           ;LCD_init.c: 45:     LCD_pulse_clock();
  2889     0244  120A  118A  25BD  120A  118A  	fcall	_LCD_pulse_clock
  2890     0249                     l1682:
  2891                           
  2892                           ;LCD_init.c: 48:     _delay((unsigned long)((150)*(4000000/4000000.0)));
  2893     0249  3031               	movlw	49
  2894     024A  1283               	bcf	3,5	;RP0=0, select bank0
  2895     024B  1303               	bcf	3,6	;RP1=0, select bank0
  2896     024C  00D1               	movwf	??_LCD_init
  2897     024D                     u1607:
  2898     024D  0BD1               	decfsz	??_LCD_init,f
  2899     024E  2A4D               	goto	u1607
  2900     024F                     l1684:
  2901                           
  2902                           ;LCD_init.c: 51:     LCD_pulse_clock();
  2903     024F  120A  118A  25BD  120A  118A  	fcall	_LCD_pulse_clock
  2904     0254                     l1686:
  2905                           
  2906                           ;LCD_init.c: 54:     PORTDbits.RD7 = 0; PORTDbits.RD6 = 0; PORTDbits.RD5 = 1; PORTDbits.
      +                          RD4 = 0;
  2907     0254  1283               	bcf	3,5	;RP0=0, select bank0
  2908     0255  1303               	bcf	3,6	;RP1=0, select bank0
  2909     0256  1388               	bcf	8,7	;volatile
  2910     0257                     l1688:
  2911     0257  1308               	bcf	8,6	;volatile
  2912     0258                     l1690:
  2913     0258  1688               	bsf	8,5	;volatile
  2914     0259                     l1692:
  2915     0259  1208               	bcf	8,4	;volatile
  2916     025A                     l1694:
  2917                           
  2918                           ;LCD_init.c: 57:     LCD_pulse_clock();
  2919     025A  120A  118A  25BD  120A  118A  	fcall	_LCD_pulse_clock
  2920     025F                     l1696:
  2921                           
  2922                           ;LCD_init.c: 60:     LCD_write_command(0x28);
  2923     025F  3028               	movlw	40
  2924     0260  120A  118A  216C  120A  118A  	fcall	_LCD_write_command
  2925     0265                     l1698:
  2926                           
  2927                           ;LCD_init.c: 61:     LCD_write_command(LCD_display_control);
  2928     0265  087C               	movf	_LCD_display_control,w
  2929     0266  120A  118A  216C  120A  118A  	fcall	_LCD_write_command
  2930     026B                     l1700:
  2931                           
  2932                           ;LCD_init.c: 62:     LCD_write_command(LCD_entry_mode);
  2933     026B  087D               	movf	_LCD_entry_mode,w
  2934     026C  120A  118A  216C  120A  118A  	fcall	_LCD_write_command
  2935     0271                     l1702:
  2936                           
  2937                           ;LCD_init.c: 63:     LCD_clear();
  2938     0271  120A  118A  258F  120A  118A  	fcall	_LCD_clear
  2939     0276                     l103:
  2940     0276  0008               	return
  2941     0277                     __end_of_LCD_init:
  2942                           
  2943                           	psect	text3
  2944     0577                     __ptext3:	
  2945 ;; *************** function _InitUART *****************
  2946 ;; Defined at:
  2947 ;;		line 10 in file "esp8266.c"
  2948 ;; Parameters:    Size  Location     Type
  2949 ;;		None
  2950 ;; Auto vars:     Size  Location     Type
  2951 ;;		None
  2952 ;; Return value:  Size  Location     Type
  2953 ;;                  1    wreg      void 
  2954 ;; Registers used:
  2955 ;;		status,2
  2956 ;; Tracked objects:
  2957 ;;		On entry : 0/0
  2958 ;;		On exit  : 0/0
  2959 ;;		Unchanged: 0/0
  2960 ;; Data sizes:     COMMON   BANK0   BANK1   BANK3   BANK2
  2961 ;;      Params:         0       0       0       0       0
  2962 ;;      Locals:         0       0       0       0       0
  2963 ;;      Temps:          0       0       0       0       0
  2964 ;;      Totals:         0       0       0       0       0
  2965 ;;Total ram usage:        0 bytes
  2966 ;; Hardware stack levels used: 1
  2967 ;; Hardware stack levels required when called: 4
  2968 ;; This function calls:
  2969 ;;		Nothing
  2970 ;; This function is called by:
  2971 ;;		_picInit
  2972 ;; This function uses a non-reentrant model
  2973 ;;
  2974                           
  2975     0577                     _InitUART:	
  2976                           ;psect for function _InitUART
  2977                           
  2978     0577                     l1712:	
  2979                           ;incstack = 0
  2980                           ; Regs used in _InitUART: [status,2]
  2981                           
  2982                           
  2983                           ;esp8266.c: 13:     TRISC6 = 0;
  2984     0577  1683               	bsf	3,5	;RP0=1, select bank1
  2985     0578  1303               	bcf	3,6	;RP1=0, select bank1
  2986     0579  1307               	bcf	7,6	;volatile
  2987                           
  2988                           ;esp8266.c: 14:     TRISC7 = 1;
  2989     057A  1787               	bsf	7,7	;volatile
  2990                           
  2991                           ;esp8266.c: 16:     TXSTAbits.BRGH = 1;
  2992     057B  1518               	bsf	24,2	;volatile
  2993     057C                     l1714:
  2994                           
  2995                           ;esp8266.c: 17:     SPBRG = 0;
  2996     057C  0199               	clrf	25	;volatile
  2997     057D                     l1716:
  2998                           
  2999                           ;esp8266.c: 19:     TXSTAbits.SYNC = 0;
  3000     057D  1218               	bcf	24,4	;volatile
  3001     057E                     l1718:
  3002                           
  3003                           ;esp8266.c: 20:     RCSTAbits.SPEN = 1;
  3004     057E  1283               	bcf	3,5	;RP0=0, select bank0
  3005     057F  1303               	bcf	3,6	;RP1=0, select bank0
  3006     0580  1798               	bsf	24,7	;volatile
  3007     0581                     l1720:
  3008                           
  3009                           ;esp8266.c: 22:     TXSTAbits.TXEN = 1;
  3010     0581  1683               	bsf	3,5	;RP0=1, select bank1
  3011     0582  1303               	bcf	3,6	;RP1=0, select bank1
  3012     0583  1698               	bsf	24,5	;volatile
  3013     0584                     l1722:
  3014                           
  3015                           ;esp8266.c: 23:     TXSTAbits.TX9 = 0;
  3016     0584  1318               	bcf	24,6	;volatile
  3017     0585                     l1724:
  3018                           
  3019                           ;esp8266.c: 25:     RCSTAbits.CREN = 1;
  3020     0585  1283               	bcf	3,5	;RP0=0, select bank0
  3021     0586  1303               	bcf	3,6	;RP1=0, select bank0
  3022     0587  1618               	bsf	24,4	;volatile
  3023     0588                     l1726:
  3024                           
  3025                           ;esp8266.c: 27:     RCSTAbits.RX9 = 0;
  3026     0588  1318               	bcf	24,6	;volatile
  3027     0589                     l1728:
  3028                           
  3029                           ;esp8266.c: 30:     PIE1bits.RCIE = 1;
  3030     0589  1683               	bsf	3,5	;RP0=1, select bank1
  3031     058A  1303               	bcf	3,6	;RP1=0, select bank1
  3032     058B  168C               	bsf	12,5	;volatile
  3033     058C                     l1730:
  3034                           
  3035                           ;esp8266.c: 31:     PEIE = 1;
  3036     058C  170B               	bsf	11,6	;volatile
  3037     058D                     l1732:
  3038                           
  3039                           ;esp8266.c: 32:     GIE = 1;
  3040     058D  178B               	bsf	11,7	;volatile
  3041     058E                     l300:
  3042     058E  0008               	return
  3043     058F                     __end_of_InitUART:
  3044                           
  3045                           	psect	text4
  3046     02E4                     __ptext4:	
  3047 ;; *************** function _openDoor *****************
  3048 ;; Defined at:
  3049 ;;		line 146 in file "main.c"
  3050 ;; Parameters:    Size  Location     Type
  3051 ;;		None
  3052 ;; Auto vars:     Size  Location     Type
  3053 ;;		None
  3054 ;; Return value:  Size  Location     Type
  3055 ;;                  1    wreg      void 
  3056 ;; Registers used:
  3057 ;;		wreg, fsr0l, fsr0h, status,2, status,0, btemp+1, pclath, cstack
  3058 ;; Tracked objects:
  3059 ;;		On entry : 0/0
  3060 ;;		On exit  : 0/0
  3061 ;;		Unchanged: 0/0
  3062 ;; Data sizes:     COMMON   BANK0   BANK1   BANK3   BANK2
  3063 ;;      Params:         0       0       0       0       0
  3064 ;;      Locals:         0       0       0       0       0
  3065 ;;      Temps:          0       3       0       0       0
  3066 ;;      Totals:         0       3       0       0       0
  3067 ;;Total ram usage:        3 bytes
  3068 ;; Hardware stack levels used: 1
  3069 ;; Hardware stack levels required when called: 7
  3070 ;; This function calls:
  3071 ;;		_LCD_clear
  3072 ;;		_LCD_cursor_set
  3073 ;;		_LCD_write_string
  3074 ;; This function is called by:
  3075 ;;		_main
  3076 ;; This function uses a non-reentrant model
  3077 ;;
  3078                           
  3079     02E4                     _openDoor:	
  3080                           ;psect for function _openDoor
  3081                           
  3082     02E4                     l1796:	
  3083                           ;incstack = 0
  3084                           ; Regs used in _openDoor: [wreg-fsr0h+status,2+status,0+btemp+1+pclath+cstack]
  3085                           
  3086                           
  3087                           ;main.c: 147:     if(doorStatus != 1){
  3088     02E4  1283               	bcf	3,5	;RP0=0, select bank0
  3089     02E5  1303               	bcf	3,6	;RP1=0, select bank0
  3090     02E6  0326               	decf	_doorStatus,w
  3091     02E7  0427               	iorwf	_doorStatus+1,w
  3092     02E8  1903               	btfsc	3,2
  3093     02E9  2AEB               	goto	u1191
  3094     02EA  2AEC               	goto	u1190
  3095     02EB                     u1191:
  3096     02EB  2B31               	goto	l1820
  3097     02EC                     u1190:
  3098     02EC                     l1798:
  3099                           
  3100                           ;main.c: 148:         LCD_clear();
  3101     02EC  120A  118A  258F  120A  118A  	fcall	_LCD_clear
  3102     02F1                     l1800:
  3103                           
  3104                           ;main.c: 149:         doorStatus = 1;
  3105     02F1  3001               	movlw	1
  3106     02F2  1283               	bcf	3,5	;RP0=0, select bank0
  3107     02F3  1303               	bcf	3,6	;RP1=0, select bank0
  3108     02F4  00A6               	movwf	_doorStatus
  3109     02F5  3000               	movlw	0
  3110     02F6  00A7               	movwf	_doorStatus+1
  3111     02F7                     l1802:
  3112                           
  3113                           ;main.c: 150:         LCD_cursor_set(1, 1);
  3114     02F7  01D0               	clrf	LCD_cursor_set@column
  3115     02F8  0AD0               	incf	LCD_cursor_set@column,f
  3116     02F9  3001               	movlw	1
  3117     02FA  120A  118A  24E6  120A  118A  	fcall	_LCD_cursor_set
  3118     02FF                     l1804:
  3119                           
  3120                           ;main.c: 151:         LCD_write_string("Door Opening");
  3121     02FF  3048               	movlw	(low ((STR_4-__stringbase)| (0+32768)))& (0+255)
  3122     0300  120A  118A  2517  120A  118A  	fcall	_LCD_write_string
  3123     0305                     l1806:
  3124                           
  3125                           ;main.c: 152:         PORTBbits.RB6 = 1;
  3126     0305  1283               	bcf	3,5	;RP0=0, select bank0
  3127     0306  1303               	bcf	3,6	;RP1=0, select bank0
  3128     0307  1706               	bsf	6,6	;volatile
  3129     0308                     l1808:
  3130                           
  3131                           ;main.c: 153:         PORTBbits.RB5 = 0;
  3132     0308  1286               	bcf	6,5	;volatile
  3133     0309                     l1810:
  3134                           
  3135                           ;main.c: 154:         _delay((unsigned long)((1500)*(4000000/4000.0)));
  3136     0309  3008               	movlw	8
  3137     030A  1283               	bcf	3,5	;RP0=0, select bank0
  3138     030B  1303               	bcf	3,6	;RP1=0, select bank0
  3139     030C  00D4               	movwf	??_openDoor+2
  3140     030D  309D               	movlw	157
  3141     030E  00D3               	movwf	??_openDoor+1
  3142     030F  3005               	movlw	5
  3143     0310  00D2               	movwf	??_openDoor
  3144     0311                     u1617:
  3145     0311  0BD2               	decfsz	??_openDoor,f
  3146     0312  2B11               	goto	u1617
  3147     0313  0BD3               	decfsz	??_openDoor+1,f
  3148     0314  2B11               	goto	u1617
  3149     0315  0BD4               	decfsz	??_openDoor+2,f
  3150     0316  2B11               	goto	u1617
  3151     0317                     l1812:
  3152                           
  3153                           ;main.c: 155:         LCD_clear();
  3154     0317  120A  118A  258F  120A  118A  	fcall	_LCD_clear
  3155     031C                     l1814:
  3156                           
  3157                           ;main.c: 156:         LCD_cursor_set(1, 1);
  3158     031C  1283               	bcf	3,5	;RP0=0, select bank0
  3159     031D  1303               	bcf	3,6	;RP1=0, select bank0
  3160     031E  01D0               	clrf	LCD_cursor_set@column
  3161     031F  0AD0               	incf	LCD_cursor_set@column,f
  3162     0320  3001               	movlw	1
  3163     0321  120A  118A  24E6  120A  118A  	fcall	_LCD_cursor_set
  3164                           
  3165                           ;main.c: 157:         LCD_write_string("Door Opened");
  3166     0326  3062               	movlw	(low ((STR_5-__stringbase)| (0+32768)))& (0+255)
  3167     0327  120A  118A  2517  120A  118A  	fcall	_LCD_write_string
  3168     032C                     l1816:
  3169                           
  3170                           ;main.c: 158:         PORTBbits.RB6 = 1;
  3171     032C  1283               	bcf	3,5	;RP0=0, select bank0
  3172     032D  1303               	bcf	3,6	;RP1=0, select bank0
  3173     032E  1706               	bsf	6,6	;volatile
  3174     032F                     l1818:
  3175                           
  3176                           ;main.c: 159:         PORTBbits.RB5 = 1;
  3177     032F  1686               	bsf	6,5	;volatile
  3178                           
  3179                           ;main.c: 160:     }else{
  3180     0330  2B46               	goto	l250
  3181     0331                     l1820:
  3182                           
  3183                           ;main.c: 161:         LCD_clear();
  3184     0331  120A  118A  258F  120A  118A  	fcall	_LCD_clear
  3185     0336                     l1822:
  3186                           
  3187                           ;main.c: 162:         LCD_cursor_set(1, 1);
  3188     0336  1283               	bcf	3,5	;RP0=0, select bank0
  3189     0337  1303               	bcf	3,6	;RP1=0, select bank0
  3190     0338  01D0               	clrf	LCD_cursor_set@column
  3191     0339  0AD0               	incf	LCD_cursor_set@column,f
  3192     033A  3001               	movlw	1
  3193     033B  120A  118A  24E6  120A  118A  	fcall	_LCD_cursor_set
  3194     0340                     l1824:
  3195                           
  3196                           ;main.c: 163:         LCD_write_string("Door Opened Before");
  3197     0340  3012               	movlw	(low ((STR_6-__stringbase)| (0+32768)))& (0+255)
  3198     0341  120A  118A  2517  120A  118A  	fcall	_LCD_write_string
  3199     0346                     l250:
  3200     0346  0008               	return
  3201     0347                     __end_of_openDoor:
  3202                           
  3203                           	psect	text5
  3204     0347                     __ptext5:	
  3205 ;; *************** function _closeDoor *****************
  3206 ;; Defined at:
  3207 ;;		line 167 in file "main.c"
  3208 ;; Parameters:    Size  Location     Type
  3209 ;;		None
  3210 ;; Auto vars:     Size  Location     Type
  3211 ;;		None
  3212 ;; Return value:  Size  Location     Type
  3213 ;;                  1    wreg      void 
  3214 ;; Registers used:
  3215 ;;		wreg, fsr0l, fsr0h, status,2, status,0, btemp+1, pclath, cstack
  3216 ;; Tracked objects:
  3217 ;;		On entry : 0/0
  3218 ;;		On exit  : 0/0
  3219 ;;		Unchanged: 0/0
  3220 ;; Data sizes:     COMMON   BANK0   BANK1   BANK3   BANK2
  3221 ;;      Params:         0       0       0       0       0
  3222 ;;      Locals:         0       0       0       0       0
  3223 ;;      Temps:          0       3       0       0       0
  3224 ;;      Totals:         0       3       0       0       0
  3225 ;;Total ram usage:        3 bytes
  3226 ;; Hardware stack levels used: 1
  3227 ;; Hardware stack levels required when called: 7
  3228 ;; This function calls:
  3229 ;;		_LCD_clear
  3230 ;;		_LCD_cursor_set
  3231 ;;		_LCD_write_string
  3232 ;; This function is called by:
  3233 ;;		_main
  3234 ;; This function uses a non-reentrant model
  3235 ;;
  3236                           
  3237     0347                     _closeDoor:	
  3238                           ;psect for function _closeDoor
  3239                           
  3240     0347                     l1826:	
  3241                           ;incstack = 0
  3242                           ; Regs used in _closeDoor: [wreg-fsr0h+status,2+status,0+btemp+1+pclath+cstack]
  3243                           
  3244                           
  3245                           ;main.c: 168:     if(doorStatus != 0){
  3246     0347  1283               	bcf	3,5	;RP0=0, select bank0
  3247     0348  1303               	bcf	3,6	;RP1=0, select bank0
  3248     0349  0826               	movf	_doorStatus,w
  3249     034A  0427               	iorwf	_doorStatus+1,w
  3250     034B  1903               	btfsc	3,2
  3251     034C  2B4E               	goto	u1201
  3252     034D  2B4F               	goto	u1200
  3253     034E                     u1201:
  3254     034E  2B92               	goto	l1852
  3255     034F                     u1200:
  3256     034F                     l1828:
  3257                           
  3258                           ;main.c: 169:         LCD_clear();
  3259     034F  120A  118A  258F  120A  118A  	fcall	_LCD_clear
  3260     0354                     l1830:
  3261                           
  3262                           ;main.c: 170:         doorStatus = 0;
  3263     0354  1283               	bcf	3,5	;RP0=0, select bank0
  3264     0355  1303               	bcf	3,6	;RP1=0, select bank0
  3265     0356  01A6               	clrf	_doorStatus
  3266     0357  01A7               	clrf	_doorStatus+1
  3267     0358                     l1832:
  3268                           
  3269                           ;main.c: 172:         LCD_cursor_set(1, 1);
  3270     0358  01D0               	clrf	LCD_cursor_set@column
  3271     0359  0AD0               	incf	LCD_cursor_set@column,f
  3272     035A  3001               	movlw	1
  3273     035B  120A  118A  24E6  120A  118A  	fcall	_LCD_cursor_set
  3274     0360                     l1834:
  3275                           
  3276                           ;main.c: 173:         LCD_write_string("Door Closing");
  3277     0360  3055               	movlw	(low ((STR_7-__stringbase)| (0+32768)))& (0+255)
  3278     0361  120A  118A  2517  120A  118A  	fcall	_LCD_write_string
  3279     0366                     l1836:
  3280                           
  3281                           ;main.c: 174:         PORTBbits.RB6 = 0;
  3282     0366  1283               	bcf	3,5	;RP0=0, select bank0
  3283     0367  1303               	bcf	3,6	;RP1=0, select bank0
  3284     0368  1306               	bcf	6,6	;volatile
  3285     0369                     l1838:
  3286                           
  3287                           ;main.c: 175:         PORTBbits.RB5 = 1;
  3288     0369  1686               	bsf	6,5	;volatile
  3289     036A                     l1840:
  3290                           
  3291                           ;main.c: 176:         _delay((unsigned long)((1500)*(4000000/4000.0)));
  3292     036A  3008               	movlw	8
  3293     036B  1283               	bcf	3,5	;RP0=0, select bank0
  3294     036C  1303               	bcf	3,6	;RP1=0, select bank0
  3295     036D  00D4               	movwf	??_closeDoor+2
  3296     036E  309D               	movlw	157
  3297     036F  00D3               	movwf	??_closeDoor+1
  3298     0370  3005               	movlw	5
  3299     0371  00D2               	movwf	??_closeDoor
  3300     0372                     u1627:
  3301     0372  0BD2               	decfsz	??_closeDoor,f
  3302     0373  2B72               	goto	u1627
  3303     0374  0BD3               	decfsz	??_closeDoor+1,f
  3304     0375  2B72               	goto	u1627
  3305     0376  0BD4               	decfsz	??_closeDoor+2,f
  3306     0377  2B72               	goto	u1627
  3307     0378                     l1842:
  3308                           
  3309                           ;main.c: 177:         LCD_clear();
  3310     0378  120A  118A  258F  120A  118A  	fcall	_LCD_clear
  3311     037D                     l1844:
  3312                           
  3313                           ;main.c: 178:         LCD_cursor_set(1, 1);
  3314     037D  1283               	bcf	3,5	;RP0=0, select bank0
  3315     037E  1303               	bcf	3,6	;RP1=0, select bank0
  3316     037F  01D0               	clrf	LCD_cursor_set@column
  3317     0380  0AD0               	incf	LCD_cursor_set@column,f
  3318     0381  3001               	movlw	1
  3319     0382  120A  118A  24E6  120A  118A  	fcall	_LCD_cursor_set
  3320     0387                     l1846:
  3321                           
  3322                           ;main.c: 179:         LCD_write_string("Door Closed");
  3323     0387  306E               	movlw	(low ((STR_8-__stringbase)| (0+32768)))& (0+255)
  3324     0388  120A  118A  2517  120A  118A  	fcall	_LCD_write_string
  3325     038D                     l1848:
  3326                           
  3327                           ;main.c: 180:         PORTBbits.RB6 = 0;
  3328     038D  1283               	bcf	3,5	;RP0=0, select bank0
  3329     038E  1303               	bcf	3,6	;RP1=0, select bank0
  3330     038F  1306               	bcf	6,6	;volatile
  3331     0390                     l1850:
  3332                           
  3333                           ;main.c: 181:         PORTBbits.RB5 = 0;
  3334     0390  1286               	bcf	6,5	;volatile
  3335                           
  3336                           ;main.c: 183:     }else{
  3337     0391  2BA7               	goto	l255
  3338     0392                     l1852:
  3339                           
  3340                           ;main.c: 184:         LCD_clear();
  3341     0392  120A  118A  258F  120A  118A  	fcall	_LCD_clear
  3342     0397                     l1854:
  3343                           
  3344                           ;main.c: 185:         LCD_cursor_set(1, 1);
  3345     0397  1283               	bcf	3,5	;RP0=0, select bank0
  3346     0398  1303               	bcf	3,6	;RP1=0, select bank0
  3347     0399  01D0               	clrf	LCD_cursor_set@column
  3348     039A  0AD0               	incf	LCD_cursor_set@column,f
  3349     039B  3001               	movlw	1
  3350     039C  120A  118A  24E6  120A  118A  	fcall	_LCD_cursor_set
  3351     03A1                     l1856:
  3352                           
  3353                           ;main.c: 186:         LCD_write_string("Door Closed Before");
  3354     03A1  3025               	movlw	(low ((STR_9-__stringbase)| (0+32768)))& (0+255)
  3355     03A2  120A  118A  2517  120A  118A  	fcall	_LCD_write_string
  3356     03A7                     l255:
  3357     03A7  0008               	return
  3358     03A8                     __end_of_closeDoor:
  3359                           
  3360                           	psect	text6
  3361     0517                     __ptext6:	
  3362 ;; *************** function _LCD_write_string *****************
  3363 ;; Defined at:
  3364 ;;		line 9 in file "LCD_write_string.c"
  3365 ;; Parameters:    Size  Location     Type
  3366 ;;  string          1    wreg     PTR unsigned char 
  3367 ;;		 -> STR_9(19), STR_8(12), STR_7(13), STR_6(19), 
  3368 ;;		 -> STR_5(12), STR_4(13), STR_3(16), STR_2(11), 
  3369 ;;		 -> STR_1(10), 
  3370 ;; Auto vars:     Size  Location     Type
  3371 ;;  string          1    9[BANK0 ] PTR unsigned char 
  3372 ;;		 -> STR_9(19), STR_8(12), STR_7(13), STR_6(19), 
  3373 ;;		 -> STR_5(12), STR_4(13), STR_3(16), STR_2(11), 
  3374 ;;		 -> STR_1(10), 
  3375 ;;  i               1    8[BANK0 ] unsigned char 
  3376 ;; Return value:  Size  Location     Type
  3377 ;;                  1    wreg      void 
  3378 ;; Registers used:
  3379 ;;		wreg, fsr0l, fsr0h, status,2, status,0, btemp+1, pclath, cstack
  3380 ;; Tracked objects:
  3381 ;;		On entry : 0/0
  3382 ;;		On exit  : 0/0
  3383 ;;		Unchanged: 0/0
  3384 ;; Data sizes:     COMMON   BANK0   BANK1   BANK3   BANK2
  3385 ;;      Params:         0       0       0       0       0
  3386 ;;      Locals:         0       2       0       0       0
  3387 ;;      Temps:          0       0       0       0       0
  3388 ;;      Totals:         0       2       0       0       0
  3389 ;;Total ram usage:        2 bytes
  3390 ;; Hardware stack levels used: 1
  3391 ;; Hardware stack levels required when called: 6
  3392 ;; This function calls:
  3393 ;;		_LCD_write_data
  3394 ;; This function is called by:
  3395 ;;		_main
  3396 ;;		_picInit
  3397 ;;		_openDoor
  3398 ;;		_closeDoor
  3399 ;; This function uses a non-reentrant model
  3400 ;;
  3401                           
  3402     0517                     _LCD_write_string:	
  3403                           ;psect for function _LCD_write_string
  3404                           
  3405                           
  3406                           ;incstack = 0
  3407 ;; using string table level
  3408                           ; Regs used in _LCD_write_string: [wreg-fsr0h+status,2+status,0+btemp+1+pclath+cstack]
  3409                           ;LCD_write_string@string stored from wreg
  3410     0517  1283               	bcf	3,5	;RP0=0, select bank0
  3411     0518  1303               	bcf	3,6	;RP1=0, select bank0
  3412     0519  00D1               	movwf	LCD_write_string@string
  3413     051A                     l1704:
  3414                           
  3415                           ;LCD_write_string.c: 12:     for(uint8_t i=0 ; string[i] != '\0' ; i++){
  3416     051A  01D0               	clrf	LCD_write_string@i
  3417     051B  2D2F               	goto	l1710
  3418     051C                     l1706:
  3419                           
  3420                           ;LCD_write_string.c: 13:         LCD_write_data(string[i]);
  3421     051C  0850               	movf	LCD_write_string@i,w
  3422     051D  0751               	addwf	LCD_write_string@string,w
  3423     051E  0084               	movwf	4
  3424     051F  120A  118A  2036  120A  118A  	fcall	stringdir
  3425     0524  120A  118A  20D8  120A  118A  	fcall	_LCD_write_data
  3426     0529                     l1708:
  3427                           
  3428                           ;LCD_write_string.c: 14:     }
  3429     0529  3001               	movlw	1
  3430     052A  00FF               	movwf	btemp+1
  3431     052B  087F               	movf	btemp+1,w
  3432     052C  1283               	bcf	3,5	;RP0=0, select bank0
  3433     052D  1303               	bcf	3,6	;RP1=0, select bank0
  3434     052E  07D0               	addwf	LCD_write_string@i,f
  3435     052F                     l1710:
  3436     052F  0850               	movf	LCD_write_string@i,w
  3437     0530  0751               	addwf	LCD_write_string@string,w
  3438     0531  0084               	movwf	4
  3439     0532  120A  118A  2036  120A  118A  	fcall	stringdir
  3440     0537  3A00               	xorlw	0
  3441     0538  1D03               	skipz
  3442     0539  2D3B               	goto	u1101
  3443     053A  2D3C               	goto	u1100
  3444     053B                     u1101:
  3445     053B  2D1C               	goto	l1706
  3446     053C                     u1100:
  3447     053C                     l171:
  3448     053C  0008               	return
  3449     053D                     __end_of_LCD_write_string:
  3450                           
  3451                           	psect	text7
  3452     00D8                     __ptext7:	
  3453 ;; *************** function _LCD_write_data *****************
  3454 ;; Defined at:
  3455 ;;		line 9 in file "LCD_write_data.c"
  3456 ;; Parameters:    Size  Location     Type
  3457 ;;  data            1    wreg     unsigned char 
  3458 ;; Auto vars:     Size  Location     Type
  3459 ;;  data            1    7[BANK0 ] unsigned char 
  3460 ;; Return value:  Size  Location     Type
  3461 ;;                  1    wreg      void 
  3462 ;; Registers used:
  3463 ;;		wreg, status,2, status,0, pclath, cstack
  3464 ;; Tracked objects:
  3465 ;;		On entry : 0/0
  3466 ;;		On exit  : 0/0
  3467 ;;		Unchanged: 0/0
  3468 ;; Data sizes:     COMMON   BANK0   BANK1   BANK3   BANK2
  3469 ;;      Params:         0       0       0       0       0
  3470 ;;      Locals:         0       1       0       0       0
  3471 ;;      Temps:          0       2       0       0       0
  3472 ;;      Totals:         0       3       0       0       0
  3473 ;;Total ram usage:        3 bytes
  3474 ;; Hardware stack levels used: 1
  3475 ;; Hardware stack levels required when called: 5
  3476 ;; This function calls:
  3477 ;;		_LCD_pulse_clock
  3478 ;; This function is called by:
  3479 ;;		_LCD_write_string
  3480 ;;		_LCD_add_character
  3481 ;;		_LCD_write_char
  3482 ;;		_LCD_write_float
  3483 ;;		_LCD_write_variable
  3484 ;; This function uses a non-reentrant model
  3485 ;;
  3486                           
  3487     00D8                     _LCD_write_data:	
  3488                           ;psect for function _LCD_write_data
  3489                           
  3490                           
  3491                           ;incstack = 0
  3492                           ; Regs used in _LCD_write_data: [wreg+status,2+status,0+pclath+cstack]
  3493                           ;LCD_write_data@data stored from wreg
  3494     00D8  1283               	bcf	3,5	;RP0=0, select bank0
  3495     00D9  1303               	bcf	3,6	;RP1=0, select bank0
  3496     00DA  00CF               	movwf	LCD_write_data@data
  3497     00DB                     l1626:
  3498                           
  3499                           ;LCD_write_data.c: 11:     PORTDbits.RD2 = 1;
  3500     00DB  1508               	bsf	8,2	;volatile
  3501     00DC                     l1628:
  3502                           
  3503                           ;LCD_write_data.c: 14:     PORTDbits.RD7 = (data & 0b10000000) >> 7;
  3504     00DC  084F               	movf	LCD_write_data@data,w
  3505     00DD  00CD               	movwf	??_LCD_write_data
  3506     00DE  3007               	movlw	7
  3507     00DF                     u1005:
  3508     00DF  1003               	clrc
  3509     00E0  0CCD               	rrf	??_LCD_write_data,f
  3510     00E1  3EFF               	addlw	-1
  3511     00E2  1D03               	skipz
  3512     00E3  28DF               	goto	u1005
  3513     00E4  084D               	movf	??_LCD_write_data,w
  3514     00E5  3901               	andlw	1
  3515     00E6  00CE               	movwf	??_LCD_write_data+1
  3516     00E7  0CCE               	rrf	??_LCD_write_data+1,f
  3517     00E8  0CCE               	rrf	??_LCD_write_data+1,f
  3518     00E9  0808               	movf	8,w	;volatile
  3519     00EA  064E               	xorwf	??_LCD_write_data+1,w
  3520     00EB  397F               	andlw	-129
  3521     00EC  064E               	xorwf	??_LCD_write_data+1,w
  3522     00ED  0088               	movwf	8	;volatile
  3523                           
  3524                           ;LCD_write_data.c: 15:     PORTDbits.RD6 = (data & 0b01000000) >> 6;
  3525     00EE  084F               	movf	LCD_write_data@data,w
  3526     00EF  00CD               	movwf	??_LCD_write_data
  3527     00F0  3006               	movlw	6
  3528     00F1                     u1015:
  3529     00F1  1003               	clrc
  3530     00F2  0CCD               	rrf	??_LCD_write_data,f
  3531     00F3  3EFF               	addlw	-1
  3532     00F4  1D03               	skipz
  3533     00F5  28F1               	goto	u1015
  3534     00F6  084D               	movf	??_LCD_write_data,w
  3535     00F7  3901               	andlw	1
  3536     00F8  00CE               	movwf	??_LCD_write_data+1
  3537     00F9  0ECE               	swapf	??_LCD_write_data+1,f
  3538     00FA  0DCE               	rlf	??_LCD_write_data+1,f
  3539     00FB  0DCE               	rlf	??_LCD_write_data+1,f
  3540     00FC  0808               	movf	8,w	;volatile
  3541     00FD  064E               	xorwf	??_LCD_write_data+1,w
  3542     00FE  39BF               	andlw	-65
  3543     00FF  064E               	xorwf	??_LCD_write_data+1,w
  3544     0100  0088               	movwf	8	;volatile
  3545                           
  3546                           ;LCD_write_data.c: 16:     PORTDbits.RD5 = (data & 0b00100000) >> 5;
  3547     0101  084F               	movf	LCD_write_data@data,w
  3548     0102  00CD               	movwf	??_LCD_write_data
  3549     0103  3005               	movlw	5
  3550     0104                     u1025:
  3551     0104  1003               	clrc
  3552     0105  0CCD               	rrf	??_LCD_write_data,f
  3553     0106  3EFF               	addlw	-1
  3554     0107  1D03               	skipz
  3555     0108  2904               	goto	u1025
  3556     0109  084D               	movf	??_LCD_write_data,w
  3557     010A  3901               	andlw	1
  3558     010B  00CE               	movwf	??_LCD_write_data+1
  3559     010C  0ECE               	swapf	??_LCD_write_data+1,f
  3560     010D  0DCE               	rlf	??_LCD_write_data+1,f
  3561     010E  0808               	movf	8,w	;volatile
  3562     010F  064E               	xorwf	??_LCD_write_data+1,w
  3563     0110  39DF               	andlw	-33
  3564     0111  064E               	xorwf	??_LCD_write_data+1,w
  3565     0112  0088               	movwf	8	;volatile
  3566                           
  3567                           ;LCD_write_data.c: 17:     PORTDbits.RD4 = (data & 0b00010000) >> 4;
  3568     0113  084F               	movf	LCD_write_data@data,w
  3569     0114  00CD               	movwf	??_LCD_write_data
  3570     0115  3004               	movlw	4
  3571     0116                     u1035:
  3572     0116  1003               	clrc
  3573     0117  0CCD               	rrf	??_LCD_write_data,f
  3574     0118  3EFF               	addlw	-1
  3575     0119  1D03               	skipz
  3576     011A  2916               	goto	u1035
  3577     011B  084D               	movf	??_LCD_write_data,w
  3578     011C  3901               	andlw	1
  3579     011D  00CE               	movwf	??_LCD_write_data+1
  3580     011E  0ECE               	swapf	??_LCD_write_data+1,f
  3581     011F  0808               	movf	8,w	;volatile
  3582     0120  064E               	xorwf	??_LCD_write_data+1,w
  3583     0121  39EF               	andlw	-17
  3584     0122  064E               	xorwf	??_LCD_write_data+1,w
  3585     0123  0088               	movwf	8	;volatile
  3586     0124                     l1630:
  3587                           
  3588                           ;LCD_write_data.c: 20:     LCD_pulse_clock();
  3589     0124  120A  118A  25BD  120A  118A  	fcall	_LCD_pulse_clock
  3590     0129                     l1632:
  3591                           
  3592                           ;LCD_write_data.c: 23:     PORTDbits.RD7 = (data & 0b00001000) >> 3;
  3593     0129  1283               	bcf	3,5	;RP0=0, select bank0
  3594     012A  1303               	bcf	3,6	;RP1=0, select bank0
  3595     012B  084F               	movf	LCD_write_data@data,w
  3596     012C  00CD               	movwf	??_LCD_write_data
  3597     012D  3003               	movlw	3
  3598     012E                     u1045:
  3599     012E  1003               	clrc
  3600     012F  0CCD               	rrf	??_LCD_write_data,f
  3601     0130  3EFF               	addlw	-1
  3602     0131  1D03               	skipz
  3603     0132  292E               	goto	u1045
  3604     0133  084D               	movf	??_LCD_write_data,w
  3605     0134  3901               	andlw	1
  3606     0135  00CE               	movwf	??_LCD_write_data+1
  3607     0136  0CCE               	rrf	??_LCD_write_data+1,f
  3608     0137  0CCE               	rrf	??_LCD_write_data+1,f
  3609     0138  0808               	movf	8,w	;volatile
  3610     0139  064E               	xorwf	??_LCD_write_data+1,w
  3611     013A  397F               	andlw	-129
  3612     013B  064E               	xorwf	??_LCD_write_data+1,w
  3613     013C  0088               	movwf	8	;volatile
  3614     013D                     l1634:
  3615                           
  3616                           ;LCD_write_data.c: 24:     PORTDbits.RD6 = (data & 0b00000100) >> 2;
  3617     013D  084F               	movf	LCD_write_data@data,w
  3618     013E  00CD               	movwf	??_LCD_write_data
  3619     013F  3002               	movlw	2
  3620     0140                     u1055:
  3621     0140  1003               	clrc
  3622     0141  0CCD               	rrf	??_LCD_write_data,f
  3623     0142  3EFF               	addlw	-1
  3624     0143  1D03               	skipz
  3625     0144  2940               	goto	u1055
  3626     0145  084D               	movf	??_LCD_write_data,w
  3627     0146  3901               	andlw	1
  3628     0147  00CE               	movwf	??_LCD_write_data+1
  3629     0148  0ECE               	swapf	??_LCD_write_data+1,f
  3630     0149  0DCE               	rlf	??_LCD_write_data+1,f
  3631     014A  0DCE               	rlf	??_LCD_write_data+1,f
  3632     014B  0808               	movf	8,w	;volatile
  3633     014C  064E               	xorwf	??_LCD_write_data+1,w
  3634     014D  39BF               	andlw	-65
  3635     014E  064E               	xorwf	??_LCD_write_data+1,w
  3636     014F  0088               	movwf	8	;volatile
  3637     0150                     l1636:
  3638                           
  3639                           ;LCD_write_data.c: 25:     PORTDbits.RD5 = (data & 0b00000010) >> 1;
  3640     0150  084F               	movf	LCD_write_data@data,w
  3641     0151  00CD               	movwf	??_LCD_write_data
  3642     0152  1003               	clrc
  3643     0153  0C4D               	rrf	??_LCD_write_data,w
  3644     0154  3901               	andlw	1
  3645     0155  00CE               	movwf	??_LCD_write_data+1
  3646     0156  0ECE               	swapf	??_LCD_write_data+1,f
  3647     0157  0DCE               	rlf	??_LCD_write_data+1,f
  3648     0158  0808               	movf	8,w	;volatile
  3649     0159  064E               	xorwf	??_LCD_write_data+1,w
  3650     015A  39DF               	andlw	-33
  3651     015B  064E               	xorwf	??_LCD_write_data+1,w
  3652     015C  0088               	movwf	8	;volatile
  3653     015D                     l1638:
  3654                           
  3655                           ;LCD_write_data.c: 26:     PORTDbits.RD4 = (data & 0b00000001) ;
  3656     015D  084F               	movf	LCD_write_data@data,w
  3657     015E  3901               	andlw	1
  3658     015F  00CD               	movwf	??_LCD_write_data
  3659     0160  0ECD               	swapf	??_LCD_write_data,f
  3660     0161  0808               	movf	8,w	;volatile
  3661     0162  064D               	xorwf	??_LCD_write_data,w
  3662     0163  39EF               	andlw	-17
  3663     0164  064D               	xorwf	??_LCD_write_data,w
  3664     0165  0088               	movwf	8	;volatile
  3665     0166                     l1640:
  3666                           
  3667                           ;LCD_write_data.c: 29:     LCD_pulse_clock();
  3668     0166  120A  118A  25BD  120A  118A  	fcall	_LCD_pulse_clock
  3669     016B                     l146:
  3670     016B  0008               	return
  3671     016C                     __end_of_LCD_write_data:
  3672                           
  3673                           	psect	text8
  3674     04E6                     __ptext8:	
  3675 ;; *************** function _LCD_cursor_set *****************
  3676 ;; Defined at:
  3677 ;;		line 9 in file "LCD_cursor_set.c"
  3678 ;; Parameters:    Size  Location     Type
  3679 ;;  row             1    wreg     unsigned char 
  3680 ;;  column          1    8[BANK0 ] unsigned char 
  3681 ;; Auto vars:     Size  Location     Type
  3682 ;;  row             1    9[BANK0 ] unsigned char 
  3683 ;; Return value:  Size  Location     Type
  3684 ;;                  1    wreg      void 
  3685 ;; Registers used:
  3686 ;;		wreg, status,2, status,0, btemp+1, pclath, cstack
  3687 ;; Tracked objects:
  3688 ;;		On entry : 0/0
  3689 ;;		On exit  : 0/0
  3690 ;;		Unchanged: 0/0
  3691 ;; Data sizes:     COMMON   BANK0   BANK1   BANK3   BANK2
  3692 ;;      Params:         0       1       0       0       0
  3693 ;;      Locals:         0       1       0       0       0
  3694 ;;      Temps:          0       0       0       0       0
  3695 ;;      Totals:         0       2       0       0       0
  3696 ;;Total ram usage:        2 bytes
  3697 ;; Hardware stack levels used: 1
  3698 ;; Hardware stack levels required when called: 6
  3699 ;; This function calls:
  3700 ;;		_LCD_write_command
  3701 ;; This function is called by:
  3702 ;;		_main
  3703 ;;		_picInit
  3704 ;;		_openDoor
  3705 ;;		_closeDoor
  3706 ;;		_LCD_add_character
  3707 ;; This function uses a non-reentrant model
  3708 ;;
  3709                           
  3710     04E6                     _LCD_cursor_set:	
  3711                           ;psect for function _LCD_cursor_set
  3712                           
  3713                           
  3714                           ;incstack = 0
  3715                           ; Regs used in _LCD_cursor_set: [wreg+status,2+status,0+btemp+1+pclath+cstack]
  3716                           ;LCD_cursor_set@row stored from wreg
  3717     04E6  1283               	bcf	3,5	;RP0=0, select bank0
  3718     04E7  1303               	bcf	3,6	;RP1=0, select bank0
  3719     04E8  00D1               	movwf	LCD_cursor_set@row
  3720     04E9                     l1648:
  3721                           
  3722                           ;LCD_cursor_set.c: 12:     if(row == 1) column += (0x80 - 1);
  3723     04E9  0351               	decf	LCD_cursor_set@row,w
  3724     04EA  1D03               	btfss	3,2
  3725     04EB  2CED               	goto	u1061
  3726     04EC  2CEE               	goto	u1060
  3727     04ED                     u1061:
  3728     04ED  2CF2               	goto	l1652
  3729     04EE                     u1060:
  3730     04EE                     l1650:
  3731     04EE  307F               	movlw	127
  3732     04EF  00FF               	movwf	btemp+1
  3733     04F0  087F               	movf	btemp+1,w
  3734     04F1  07D0               	addwf	LCD_cursor_set@column,f
  3735     04F2                     l1652:
  3736                           
  3737                           ;LCD_cursor_set.c: 13:     if(row == 2) column += (0xC0 - 1);
  3738     04F2  3002               	movlw	2
  3739     04F3  0651               	xorwf	LCD_cursor_set@row,w
  3740     04F4  1D03               	btfss	3,2
  3741     04F5  2CF7               	goto	u1071
  3742     04F6  2CF8               	goto	u1070
  3743     04F7                     u1071:
  3744     04F7  2CFC               	goto	l1656
  3745     04F8                     u1070:
  3746     04F8                     l1654:
  3747     04F8  30BF               	movlw	191
  3748     04F9  00FF               	movwf	btemp+1
  3749     04FA  087F               	movf	btemp+1,w
  3750     04FB  07D0               	addwf	LCD_cursor_set@column,f
  3751     04FC                     l1656:
  3752                           
  3753                           ;LCD_cursor_set.c: 14:     if(row == 3) column += (0x80 + 19);
  3754     04FC  3003               	movlw	3
  3755     04FD  0651               	xorwf	LCD_cursor_set@row,w
  3756     04FE  1D03               	btfss	3,2
  3757     04FF  2D01               	goto	u1081
  3758     0500  2D02               	goto	u1080
  3759     0501                     u1081:
  3760     0501  2D06               	goto	l1660
  3761     0502                     u1080:
  3762     0502                     l1658:
  3763     0502  3093               	movlw	147
  3764     0503  00FF               	movwf	btemp+1
  3765     0504  087F               	movf	btemp+1,w
  3766     0505  07D0               	addwf	LCD_cursor_set@column,f
  3767     0506                     l1660:
  3768                           
  3769                           ;LCD_cursor_set.c: 15:     if(row == 4) column += (0xC0 + 19);
  3770     0506  3004               	movlw	4
  3771     0507  0651               	xorwf	LCD_cursor_set@row,w
  3772     0508  1D03               	btfss	3,2
  3773     0509  2D0B               	goto	u1091
  3774     050A  2D0C               	goto	u1090
  3775     050B                     u1091:
  3776     050B  2D10               	goto	l1664
  3777     050C                     u1090:
  3778     050C                     l1662:
  3779     050C  30D3               	movlw	211
  3780     050D  00FF               	movwf	btemp+1
  3781     050E  087F               	movf	btemp+1,w
  3782     050F  07D0               	addwf	LCD_cursor_set@column,f
  3783     0510                     l1664:
  3784                           
  3785                           ;LCD_cursor_set.c: 18:    LCD_write_command(column);
  3786     0510  0850               	movf	LCD_cursor_set@column,w
  3787     0511  120A  118A  216C  120A  118A  	fcall	_LCD_write_command
  3788     0516                     l84:
  3789     0516  0008               	return
  3790     0517                     __end_of_LCD_cursor_set:
  3791                           
  3792                           	psect	text9
  3793     058F                     __ptext9:	
  3794 ;; *************** function _LCD_clear *****************
  3795 ;; Defined at:
  3796 ;;		line 7 in file "LCD_clear.c"
  3797 ;; Parameters:    Size  Location     Type
  3798 ;;		None
  3799 ;; Auto vars:     Size  Location     Type
  3800 ;;		None
  3801 ;; Return value:  Size  Location     Type
  3802 ;;                  1    wreg      void 
  3803 ;; Registers used:
  3804 ;;		wreg, status,2, status,0, pclath, cstack
  3805 ;; Tracked objects:
  3806 ;;		On entry : 0/0
  3807 ;;		On exit  : 0/0
  3808 ;;		Unchanged: 0/0
  3809 ;; Data sizes:     COMMON   BANK0   BANK1   BANK3   BANK2
  3810 ;;      Params:         0       0       0       0       0
  3811 ;;      Locals:         0       0       0       0       0
  3812 ;;      Temps:          0       1       0       0       0
  3813 ;;      Totals:         0       1       0       0       0
  3814 ;;Total ram usage:        1 bytes
  3815 ;; Hardware stack levels used: 1
  3816 ;; Hardware stack levels required when called: 6
  3817 ;; This function calls:
  3818 ;;		_LCD_write_command
  3819 ;; This function is called by:
  3820 ;;		_LCD_init
  3821 ;;		_main
  3822 ;;		_picInit
  3823 ;;		_openDoor
  3824 ;;		_closeDoor
  3825 ;; This function uses a non-reentrant model
  3826 ;;
  3827                           
  3828     058F                     _LCD_clear:	
  3829                           ;psect for function _LCD_clear
  3830                           
  3831     058F                     l1642:	
  3832                           ;incstack = 0
  3833 ;; hardware stack exceeded
  3834                           ; Regs used in _LCD_clear: [wreg+status,2+status,0+pclath+cstack]
  3835                           
  3836                           
  3837                           ;LCD_clear.c: 10:     LCD_write_command(0x01);
  3838     058F  3001               	movlw	1
  3839     0590  120A  118A  216C  120A  118A  	fcall	_LCD_write_command
  3840     0595                     l1644:
  3841                           
  3842                           ;LCD_clear.c: 13:     _delay((unsigned long)(((1600 - 40))*(4000000/4000000.0)));
  3843     0595  30DE               	movlw	222
  3844     0596  1283               	bcf	3,5	;RP0=0, select bank0
  3845     0597  1303               	bcf	3,6	;RP1=0, select bank0
  3846     0598  00D0               	movwf	??_LCD_clear
  3847     0599                     u1637:
  3848     0599  2D9A               	nop2
  3849     059A  2D9B               	nop2
  3850     059B  0BD0               	decfsz	??_LCD_clear,f
  3851     059C  2D99               	goto	u1637
  3852     059D  2D9E               	nop2
  3853     059E  0000               	nop
  3854     059F                     l1646:
  3855                           
  3856                           ;LCD_clear.c: 16:     LCD_write_command(LCD_entry_mode);
  3857     059F  087D               	movf	_LCD_entry_mode,w
  3858     05A0  120A  118A  216C  120A  118A  	fcall	_LCD_write_command
  3859     05A5                     l20:
  3860     05A5  0008               	return
  3861     05A6                     __end_of_LCD_clear:
  3862                           
  3863                           	psect	text10
  3864     016C                     __ptext10:	
  3865 ;; *************** function _LCD_write_command *****************
  3866 ;; Defined at:
  3867 ;;		line 9 in file "LCD_write_command.c"
  3868 ;; Parameters:    Size  Location     Type
  3869 ;;  command         1    wreg     unsigned char 
  3870 ;; Auto vars:     Size  Location     Type
  3871 ;;  command         1    7[BANK0 ] unsigned char 
  3872 ;; Return value:  Size  Location     Type
  3873 ;;                  1    wreg      void 
  3874 ;; Registers used:
  3875 ;;		wreg, status,2, status,0, pclath, cstack
  3876 ;; Tracked objects:
  3877 ;;		On entry : 0/0
  3878 ;;		On exit  : 0/0
  3879 ;;		Unchanged: 0/0
  3880 ;; Data sizes:     COMMON   BANK0   BANK1   BANK3   BANK2
  3881 ;;      Params:         0       0       0       0       0
  3882 ;;      Locals:         0       1       0       0       0
  3883 ;;      Temps:          0       2       0       0       0
  3884 ;;      Totals:         0       3       0       0       0
  3885 ;;Total ram usage:        3 bytes
  3886 ;; Hardware stack levels used: 1
  3887 ;; Hardware stack levels required when called: 5
  3888 ;; This function calls:
  3889 ;;		_LCD_pulse_clock
  3890 ;; This function is called by:
  3891 ;;		_LCD_clear
  3892 ;;		_LCD_cursor_set
  3893 ;;		_LCD_init
  3894 ;;		_LCD_add_character
  3895 ;;		_LCD_configure_cursor_blink
  3896 ;;		_LCD_configure_cursor_display
  3897 ;;		_LCD_configure_entry_id
  3898 ;;		_LCD_configure_entry_shift
  3899 ;;		_LCD_configure_lcd_display
  3900 ;;		_LCD_cursor_decrement
  3901 ;;		_LCD_cursor_increment
  3902 ;;		_LCD_shift_left
  3903 ;;		_LCD_shift_reset
  3904 ;;		_LCD_shift_right
  3905 ;; This function uses a non-reentrant model
  3906 ;;
  3907                           
  3908     016C                     _LCD_write_command:	
  3909                           ;psect for function _LCD_write_command
  3910                           
  3911                           
  3912                           ;incstack = 0
  3913                           ; Regs used in _LCD_write_command: [wreg+status,2+status,0+pclath+cstack]
  3914                           ;LCD_write_command@command stored from wreg
  3915     016C  1283               	bcf	3,5	;RP0=0, select bank0
  3916     016D  1303               	bcf	3,6	;RP1=0, select bank0
  3917     016E  00CF               	movwf	LCD_write_command@command
  3918     016F                     l1610:
  3919                           
  3920                           ;LCD_write_command.c: 11:     PORTDbits.RD2 = 0;
  3921     016F  1108               	bcf	8,2	;volatile
  3922     0170                     l1612:
  3923                           
  3924                           ;LCD_write_command.c: 14:     PORTDbits.RD7 = (command & 0b10000000) >> 7;
  3925     0170  084F               	movf	LCD_write_command@command,w
  3926     0171  00CD               	movwf	??_LCD_write_command
  3927     0172  3007               	movlw	7
  3928     0173                     u945:
  3929     0173  1003               	clrc
  3930     0174  0CCD               	rrf	??_LCD_write_command,f
  3931     0175  3EFF               	addlw	-1
  3932     0176  1D03               	skipz
  3933     0177  2973               	goto	u945
  3934     0178  084D               	movf	??_LCD_write_command,w
  3935     0179  3901               	andlw	1
  3936     017A  00CE               	movwf	??_LCD_write_command+1
  3937     017B  0CCE               	rrf	??_LCD_write_command+1,f
  3938     017C  0CCE               	rrf	??_LCD_write_command+1,f
  3939     017D  0808               	movf	8,w	;volatile
  3940     017E  064E               	xorwf	??_LCD_write_command+1,w
  3941     017F  397F               	andlw	-129
  3942     0180  064E               	xorwf	??_LCD_write_command+1,w
  3943     0181  0088               	movwf	8	;volatile
  3944                           
  3945                           ;LCD_write_command.c: 15:     PORTDbits.RD6 = (command & 0b01000000) >> 6;
  3946     0182  084F               	movf	LCD_write_command@command,w
  3947     0183  00CD               	movwf	??_LCD_write_command
  3948     0184  3006               	movlw	6
  3949     0185                     u955:
  3950     0185  1003               	clrc
  3951     0186  0CCD               	rrf	??_LCD_write_command,f
  3952     0187  3EFF               	addlw	-1
  3953     0188  1D03               	skipz
  3954     0189  2985               	goto	u955
  3955     018A  084D               	movf	??_LCD_write_command,w
  3956     018B  3901               	andlw	1
  3957     018C  00CE               	movwf	??_LCD_write_command+1
  3958     018D  0ECE               	swapf	??_LCD_write_command+1,f
  3959     018E  0DCE               	rlf	??_LCD_write_command+1,f
  3960     018F  0DCE               	rlf	??_LCD_write_command+1,f
  3961     0190  0808               	movf	8,w	;volatile
  3962     0191  064E               	xorwf	??_LCD_write_command+1,w
  3963     0192  39BF               	andlw	-65
  3964     0193  064E               	xorwf	??_LCD_write_command+1,w
  3965     0194  0088               	movwf	8	;volatile
  3966                           
  3967                           ;LCD_write_command.c: 16:     PORTDbits.RD5 = (command & 0b00100000) >> 5;
  3968     0195  084F               	movf	LCD_write_command@command,w
  3969     0196  00CD               	movwf	??_LCD_write_command
  3970     0197  3005               	movlw	5
  3971     0198                     u965:
  3972     0198  1003               	clrc
  3973     0199  0CCD               	rrf	??_LCD_write_command,f
  3974     019A  3EFF               	addlw	-1
  3975     019B  1D03               	skipz
  3976     019C  2998               	goto	u965
  3977     019D  084D               	movf	??_LCD_write_command,w
  3978     019E  3901               	andlw	1
  3979     019F  00CE               	movwf	??_LCD_write_command+1
  3980     01A0  0ECE               	swapf	??_LCD_write_command+1,f
  3981     01A1  0DCE               	rlf	??_LCD_write_command+1,f
  3982     01A2  0808               	movf	8,w	;volatile
  3983     01A3  064E               	xorwf	??_LCD_write_command+1,w
  3984     01A4  39DF               	andlw	-33
  3985     01A5  064E               	xorwf	??_LCD_write_command+1,w
  3986     01A6  0088               	movwf	8	;volatile
  3987                           
  3988                           ;LCD_write_command.c: 17:     PORTDbits.RD4 = (command & 0b00010000) >> 4;
  3989     01A7  084F               	movf	LCD_write_command@command,w
  3990     01A8  00CD               	movwf	??_LCD_write_command
  3991     01A9  3004               	movlw	4
  3992     01AA                     u975:
  3993     01AA  1003               	clrc
  3994     01AB  0CCD               	rrf	??_LCD_write_command,f
  3995     01AC  3EFF               	addlw	-1
  3996     01AD  1D03               	skipz
  3997     01AE  29AA               	goto	u975
  3998     01AF  084D               	movf	??_LCD_write_command,w
  3999     01B0  3901               	andlw	1
  4000     01B1  00CE               	movwf	??_LCD_write_command+1
  4001     01B2  0ECE               	swapf	??_LCD_write_command+1,f
  4002     01B3  0808               	movf	8,w	;volatile
  4003     01B4  064E               	xorwf	??_LCD_write_command+1,w
  4004     01B5  39EF               	andlw	-17
  4005     01B6  064E               	xorwf	??_LCD_write_command+1,w
  4006     01B7  0088               	movwf	8	;volatile
  4007     01B8                     l1614:
  4008                           
  4009                           ;LCD_write_command.c: 20:     LCD_pulse_clock();
  4010     01B8  120A  118A  25BD  120A  118A  	fcall	_LCD_pulse_clock
  4011     01BD                     l1616:
  4012                           
  4013                           ;LCD_write_command.c: 23:     PORTDbits.RD7 = (command & 0b00001000) >> 3;
  4014     01BD  1283               	bcf	3,5	;RP0=0, select bank0
  4015     01BE  1303               	bcf	3,6	;RP1=0, select bank0
  4016     01BF  084F               	movf	LCD_write_command@command,w
  4017     01C0  00CD               	movwf	??_LCD_write_command
  4018     01C1  3003               	movlw	3
  4019     01C2                     u985:
  4020     01C2  1003               	clrc
  4021     01C3  0CCD               	rrf	??_LCD_write_command,f
  4022     01C4  3EFF               	addlw	-1
  4023     01C5  1D03               	skipz
  4024     01C6  29C2               	goto	u985
  4025     01C7  084D               	movf	??_LCD_write_command,w
  4026     01C8  3901               	andlw	1
  4027     01C9  00CE               	movwf	??_LCD_write_command+1
  4028     01CA  0CCE               	rrf	??_LCD_write_command+1,f
  4029     01CB  0CCE               	rrf	??_LCD_write_command+1,f
  4030     01CC  0808               	movf	8,w	;volatile
  4031     01CD  064E               	xorwf	??_LCD_write_command+1,w
  4032     01CE  397F               	andlw	-129
  4033     01CF  064E               	xorwf	??_LCD_write_command+1,w
  4034     01D0  0088               	movwf	8	;volatile
  4035     01D1                     l1618:
  4036                           
  4037                           ;LCD_write_command.c: 24:     PORTDbits.RD6 = (command & 0b00000100) >> 2;
  4038     01D1  084F               	movf	LCD_write_command@command,w
  4039     01D2  00CD               	movwf	??_LCD_write_command
  4040     01D3  3002               	movlw	2
  4041     01D4                     u995:
  4042     01D4  1003               	clrc
  4043     01D5  0CCD               	rrf	??_LCD_write_command,f
  4044     01D6  3EFF               	addlw	-1
  4045     01D7  1D03               	skipz
  4046     01D8  29D4               	goto	u995
  4047     01D9  084D               	movf	??_LCD_write_command,w
  4048     01DA  3901               	andlw	1
  4049     01DB  00CE               	movwf	??_LCD_write_command+1
  4050     01DC  0ECE               	swapf	??_LCD_write_command+1,f
  4051     01DD  0DCE               	rlf	??_LCD_write_command+1,f
  4052     01DE  0DCE               	rlf	??_LCD_write_command+1,f
  4053     01DF  0808               	movf	8,w	;volatile
  4054     01E0  064E               	xorwf	??_LCD_write_command+1,w
  4055     01E1  39BF               	andlw	-65
  4056     01E2  064E               	xorwf	??_LCD_write_command+1,w
  4057     01E3  0088               	movwf	8	;volatile
  4058     01E4                     l1620:
  4059                           
  4060                           ;LCD_write_command.c: 25:     PORTDbits.RD5 = (command & 0b00000010) >> 1;
  4061     01E4  084F               	movf	LCD_write_command@command,w
  4062     01E5  00CD               	movwf	??_LCD_write_command
  4063     01E6  1003               	clrc
  4064     01E7  0C4D               	rrf	??_LCD_write_command,w
  4065     01E8  3901               	andlw	1
  4066     01E9  00CE               	movwf	??_LCD_write_command+1
  4067     01EA  0ECE               	swapf	??_LCD_write_command+1,f
  4068     01EB  0DCE               	rlf	??_LCD_write_command+1,f
  4069     01EC  0808               	movf	8,w	;volatile
  4070     01ED  064E               	xorwf	??_LCD_write_command+1,w
  4071     01EE  39DF               	andlw	-33
  4072     01EF  064E               	xorwf	??_LCD_write_command+1,w
  4073     01F0  0088               	movwf	8	;volatile
  4074     01F1                     l1622:
  4075                           
  4076                           ;LCD_write_command.c: 26:     PORTDbits.RD4 = (command & 0b00000001) ;
  4077     01F1  084F               	movf	LCD_write_command@command,w
  4078     01F2  3901               	andlw	1
  4079     01F3  00CD               	movwf	??_LCD_write_command
  4080     01F4  0ECD               	swapf	??_LCD_write_command,f
  4081     01F5  0808               	movf	8,w	;volatile
  4082     01F6  064D               	xorwf	??_LCD_write_command,w
  4083     01F7  39EF               	andlw	-17
  4084     01F8  064D               	xorwf	??_LCD_write_command,w
  4085     01F9  0088               	movwf	8	;volatile
  4086     01FA                     l1624:
  4087                           
  4088                           ;LCD_write_command.c: 29:     LCD_pulse_clock();
  4089     01FA  120A  118A  25BD  120A  118A  	fcall	_LCD_pulse_clock
  4090     01FF                     l139:
  4091     01FF  0008               	return
  4092     0200                     __end_of_LCD_write_command:
  4093                           
  4094                           	psect	text11
  4095     05BD                     __ptext11:	
  4096 ;; *************** function _LCD_pulse_clock *****************
  4097 ;; Defined at:
  4098 ;;		line 8 in file "LCD_pulse_clock.c"
  4099 ;; Parameters:    Size  Location     Type
  4100 ;;		None
  4101 ;; Auto vars:     Size  Location     Type
  4102 ;;		None
  4103 ;; Return value:  Size  Location     Type
  4104 ;;                  1    wreg      void 
  4105 ;; Registers used:
  4106 ;;		wreg
  4107 ;; Tracked objects:
  4108 ;;		On entry : 0/0
  4109 ;;		On exit  : 0/0
  4110 ;;		Unchanged: 0/0
  4111 ;; Data sizes:     COMMON   BANK0   BANK1   BANK3   BANK2
  4112 ;;      Params:         0       0       0       0       0
  4113 ;;      Locals:         0       0       0       0       0
  4114 ;;      Temps:          0       1       0       0       0
  4115 ;;      Totals:         0       1       0       0       0
  4116 ;;Total ram usage:        1 bytes
  4117 ;; Hardware stack levels used: 1
  4118 ;; Hardware stack levels required when called: 4
  4119 ;; This function calls:
  4120 ;;		Nothing
  4121 ;; This function is called by:
  4122 ;;		_LCD_init
  4123 ;;		_LCD_write_command
  4124 ;;		_LCD_write_data
  4125 ;; This function uses a non-reentrant model
  4126 ;;
  4127                           
  4128     05BD                     _LCD_pulse_clock:	
  4129                           ;psect for function _LCD_pulse_clock
  4130                           
  4131     05BD                     l1604:	
  4132                           ;incstack = 0
  4133                           ; Regs used in _LCD_pulse_clock: [wreg]
  4134                           
  4135                           
  4136                           ;LCD_pulse_clock.c: 10:   PORTDbits.RD3 = 1;
  4137     05BD  1283               	bcf	3,5	;RP0=0, select bank0
  4138     05BE  1303               	bcf	3,6	;RP1=0, select bank0
  4139     05BF  1588               	bsf	8,3	;volatile
  4140     05C0                     l1606:
  4141                           
  4142                           ;LCD_pulse_clock.c: 11:   _delay((unsigned long)((40)*(4000000/4000000.0)));
  4143     05C0  300C               	movlw	12
  4144     05C1  1283               	bcf	3,5	;RP0=0, select bank0
  4145     05C2  1303               	bcf	3,6	;RP1=0, select bank0
  4146     05C3  00CC               	movwf	??_LCD_pulse_clock
  4147     05C4                     u1647:
  4148     05C4  0BCC               	decfsz	??_LCD_pulse_clock,f
  4149     05C5  2DC4               	goto	u1647
  4150     05C6  0000               	nop
  4151     05C7                     l1608:
  4152                           
  4153                           ;LCD_pulse_clock.c: 12:   PORTDbits.RD3 = 0;
  4154     05C7  1283               	bcf	3,5	;RP0=0, select bank0
  4155     05C8  1303               	bcf	3,6	;RP1=0, select bank0
  4156     05C9  1188               	bcf	8,3	;volatile
  4157     05CA                     l110:
  4158     05CA  0008               	return
  4159     05CB                     __end_of_LCD_pulse_clock:
  4160                           
  4161                           	psect	text12
  4162     0277                     __ptext12:	
  4163 ;; *************** function _ISR *****************
  4164 ;; Defined at:
  4165 ;;		line 191 in file "main.c"
  4166 ;; Parameters:    Size  Location     Type
  4167 ;;		None
  4168 ;; Auto vars:     Size  Location     Type
  4169 ;;		None
  4170 ;; Return value:  Size  Location     Type
  4171 ;;                  1    wreg      void 
  4172 ;; Registers used:
  4173 ;;		wreg, fsr0l, fsr0h, status,2, status,0, btemp+1, pclath, cstack
  4174 ;; Tracked objects:
  4175 ;;		On entry : 0/0
  4176 ;;		On exit  : 0/0
  4177 ;;		Unchanged: 0/0
  4178 ;; Data sizes:     COMMON   BANK0   BANK1   BANK3   BANK2
  4179 ;;      Params:         0       0       0       0       0
  4180 ;;      Locals:         0       0       0       0       0
  4181 ;;      Temps:          0       4       0       0       0
  4182 ;;      Totals:         0       4       0       0       0
  4183 ;;Total ram usage:        4 bytes
  4184 ;; Hardware stack levels used: 1
  4185 ;; Hardware stack levels required when called: 3
  4186 ;; This function calls:
  4187 ;;		_ClearStringReceive
  4188 ;;		_strstr
  4189 ;; This function is called by:
  4190 ;;		Interrupt level 1
  4191 ;; This function uses a non-reentrant model
  4192 ;;
  4193                           
  4194     0277                     _ISR:	
  4195                           ;psect for function _ISR
  4196                           
  4197     0277                     i1l2098:
  4198                           
  4199                           ;main.c: 192:     if (PIR1bits.RCIF == 1 && pos < 30) {
  4200     0277  1E8C               	btfss	12,5	;volatile
  4201     0278  2A7A               	goto	u150_21
  4202     0279  2A7B               	goto	u150_20
  4203     027A                     u150_21:
  4204     027A  2A91               	goto	i1l2108
  4205     027B                     u150_20:
  4206     027B                     i1l2100:
  4207     027B  3000               	movlw	0
  4208     027C  0229               	subwf	_pos+1,w
  4209     027D  301E               	movlw	30
  4210     027E  1903               	skipnz
  4211     027F  0228               	subwf	_pos,w
  4212     0280  1803               	skipnc
  4213     0281  2A83               	goto	u151_21
  4214     0282  2A84               	goto	u151_20
  4215     0283                     u151_21:
  4216     0283  2A91               	goto	i1l2108
  4217     0284                     u151_20:
  4218     0284                     i1l2102:
  4219                           
  4220                           ;main.c: 193:         StringReceive[pos] = RCREG;
  4221     0284  0828               	movf	_pos,w
  4222     0285  3E2A               	addlw	(low (_StringReceive| 0))& (0+255)
  4223     0286  0084               	movwf	4
  4224     0287  081A               	movf	26,w	;volatile
  4225     0288  1383               	bcf	3,7	;select IRP bank0
  4226     0289  0080               	movwf	0
  4227     028A                     i1l2104:
  4228                           
  4229                           ;main.c: 194:         pos++;
  4230     028A  3001               	movlw	1
  4231     028B  07A8               	addwf	_pos,f
  4232     028C  1803               	skipnc
  4233     028D  0AA9               	incf	_pos+1,f
  4234     028E  3000               	movlw	0
  4235     028F  07A9               	addwf	_pos+1,f
  4236     0290                     i1l2106:
  4237                           
  4238                           ;main.c: 195:         RCIF = 0;
  4239     0290  128C               	bcf	12,5	;volatile
  4240     0291                     i1l2108:
  4241                           
  4242                           ;main.c: 198:     if(strstr(StringReceive, "Open") != ((void*)0)){
  4243     0291  3095               	movlw	(low ((STR_10-__stringbase)| (0+32768)))& (0+255)
  4244     0292  00F6               	movwf	strstr@n
  4245     0293  302A               	movlw	(low (_StringReceive| 0))& (0+255)
  4246     0294  120A  118A  2465  120A  118A  	fcall	_strstr
  4247     0299  3A00               	xorlw	0
  4248     029A  1903               	skipnz
  4249     029B  2A9D               	goto	u152_21
  4250     029C  2A9E               	goto	u152_20
  4251     029D                     u152_21:
  4252     029D  2AAD               	goto	i1l2114
  4253     029E                     u152_20:
  4254     029E                     i1l2110:
  4255                           
  4256                           ;main.c: 199:         doorStatus = 1;
  4257     029E  3001               	movlw	1
  4258     029F  1283               	bcf	3,5	;RP0=0, select bank0
  4259     02A0  1303               	bcf	3,6	;RP1=0, select bank0
  4260     02A1  00A6               	movwf	_doorStatus
  4261     02A2  3000               	movlw	0
  4262     02A3  00A7               	movwf	_doorStatus+1
  4263                           
  4264                           ;main.c: 200:         StatusChange = 1;
  4265     02A4  3001               	movlw	1
  4266     02A5  00A4               	movwf	_StatusChange
  4267     02A6  3000               	movlw	0
  4268     02A7  00A5               	movwf	_StatusChange+1
  4269     02A8                     i1l2112:
  4270                           
  4271                           ;main.c: 201:         ClearStringReceive();
  4272     02A8  120A  118A  253D  120A  118A  	fcall	_ClearStringReceive
  4273     02AD                     i1l2114:
  4274     02AD  308F               	movlw	(low ((STR_11-__stringbase)| (0+32768)))& (0+255)
  4275     02AE  00F6               	movwf	strstr@n
  4276     02AF  302A               	movlw	(low (_StringReceive| 0))& (0+255)
  4277     02B0  120A  118A  2465  120A  118A  	fcall	_strstr
  4278     02B5  3A00               	xorlw	0
  4279     02B6  1903               	skipnz
  4280     02B7  2AB9               	goto	u153_21
  4281     02B8  2ABA               	goto	u153_20
  4282     02B9                     u153_21:
  4283     02B9  2AC7               	goto	i1l2122
  4284     02BA                     u153_20:
  4285     02BA                     i1l2116:
  4286                           
  4287                           ;main.c: 203:         doorStatus = 0;
  4288     02BA  1283               	bcf	3,5	;RP0=0, select bank0
  4289     02BB  1303               	bcf	3,6	;RP1=0, select bank0
  4290     02BC  01A6               	clrf	_doorStatus
  4291     02BD  01A7               	clrf	_doorStatus+1
  4292     02BE                     i1l2118:
  4293                           
  4294                           ;main.c: 204:         StatusChange = 1;
  4295     02BE  3001               	movlw	1
  4296     02BF  00A4               	movwf	_StatusChange
  4297     02C0  3000               	movlw	0
  4298     02C1  00A5               	movwf	_StatusChange+1
  4299     02C2                     i1l2120:
  4300                           
  4301                           ;main.c: 205:         ClearStringReceive();
  4302     02C2  120A  118A  253D  120A  118A  	fcall	_ClearStringReceive
  4303     02C7                     i1l2122:
  4304                           
  4305                           ;main.c: 208:     if(pos >= 30){
  4306     02C7  3000               	movlw	0
  4307     02C8  1283               	bcf	3,5	;RP0=0, select bank0
  4308     02C9  1303               	bcf	3,6	;RP1=0, select bank0
  4309     02CA  0229               	subwf	_pos+1,w
  4310     02CB  301E               	movlw	30
  4311     02CC  1903               	skipnz
  4312     02CD  0228               	subwf	_pos,w
  4313     02CE  1C03               	skipc
  4314     02CF  2AD1               	goto	u154_21
  4315     02D0  2AD2               	goto	u154_20
  4316     02D1                     u154_21:
  4317     02D1  2AD7               	goto	i1l264
  4318     02D2                     u154_20:
  4319     02D2                     i1l2124:
  4320                           
  4321                           ;main.c: 209:         ClearStringReceive();
  4322     02D2  120A  118A  253D  120A  118A  	fcall	_ClearStringReceive
  4323     02D7                     i1l264:
  4324     02D7  1283               	bcf	3,5	;RP0=0, select bank0
  4325     02D8  1303               	bcf	3,6	;RP1=0, select bank0
  4326     02D9  084B               	movf	??_ISR+3,w
  4327     02DA  00FF               	movwf	btemp+1
  4328     02DB  084A               	movf	??_ISR+2,w
  4329     02DC  008A               	movwf	10
  4330     02DD  0849               	movf	??_ISR+1,w
  4331     02DE  0084               	movwf	4
  4332     02DF  0E48               	swapf	??_ISR,w
  4333     02E0  0083               	movwf	3
  4334     02E1  0EFE               	swapf	btemp,f
  4335     02E2  0E7E               	swapf	btemp,w
  4336     02E3  0009               	retfie
  4337     02E4                     __end_of_ISR:
  4338                           
  4339                           	psect	intentry
  4340     0004                     __pintentry:	
  4341                           ;incstack = 0
  4342 ;; hardware stack exceeded
  4343                           ; Regs used in _ISR: [wreg-fsr0h+status,2+status,0+btemp+1+pclath+cstack]
  4344                           
  4345     0004                     interrupt_function:
  4346     007E                     saved_w	set	btemp
  4347     0004  00FE               	movwf	btemp
  4348     0005  0E03               	swapf	3,w
  4349     0006  1283               	bcf	3,5	;RP0=0, select bank0
  4350     0007  1303               	bcf	3,6	;RP1=0, select bank0
  4351     0008  00C8               	movwf	??_ISR
  4352     0009  0804               	movf	4,w
  4353     000A  00C9               	movwf	??_ISR+1
  4354     000B  080A               	movf	10,w
  4355     000C  00CA               	movwf	??_ISR+2
  4356     000D  087F               	movf	btemp+1,w
  4357     000E  00CB               	movwf	??_ISR+3
  4358     000F  120A  118A  2A77   	ljmp	_ISR
  4359                           
  4360                           	psect	text13
  4361     0465                     __ptext13:	
  4362 ;; *************** function _strstr *****************
  4363 ;; Defined at:
  4364 ;;		line 4 in file "C:\Program Files\Microchip\xc8\v2.45\pic\sources\c99\common\strstr.c"
  4365 ;; Parameters:    Size  Location     Type
  4366 ;;  h               1    wreg     PTR const unsigned char 
  4367 ;;		 -> NULL(0), StringReceive(30), 
  4368 ;;  n               1    6[COMMON] PTR const unsigned char 
  4369 ;;		 -> STR_11(6), STR_10(5), 
  4370 ;; Auto vars:     Size  Location     Type
  4371 ;;  h               1   11[COMMON] PTR const unsigned char 
  4372 ;;		 -> NULL(0), StringReceive(30), 
  4373 ;;  nl              2    9[COMMON] unsigned int 
  4374 ;; Return value:  Size  Location     Type
  4375 ;;                  1    wreg      PTR unsigned char 
  4376 ;; Registers used:
  4377 ;;		wreg, fsr0l, fsr0h, status,2, status,0, btemp+1, pclath, cstack
  4378 ;; Tracked objects:
  4379 ;;		On entry : 0/0
  4380 ;;		On exit  : 0/0
  4381 ;;		Unchanged: 0/0
  4382 ;; Data sizes:     COMMON   BANK0   BANK1   BANK3   BANK2
  4383 ;;      Params:         1       0       0       0       0
  4384 ;;      Locals:         3       0       0       0       0
  4385 ;;      Temps:          2       0       0       0       0
  4386 ;;      Totals:         6       0       0       0       0
  4387 ;;Total ram usage:        6 bytes
  4388 ;; Hardware stack levels used: 1
  4389 ;; Hardware stack levels required when called: 2
  4390 ;; This function calls:
  4391 ;;		_strchr
  4392 ;;		_strlen
  4393 ;;		_strncmp
  4394 ;; This function is called by:
  4395 ;;		_ISR
  4396 ;; This function uses a non-reentrant model
  4397 ;;
  4398                           
  4399     0465                     _strstr:	
  4400                           ;psect for function _strstr
  4401                           
  4402                           
  4403                           ;incstack = 0
  4404 ;; hardware stack exceeded
  4405                           ; Regs used in _strstr: [wreg-fsr0h+status,2+status,0+btemp+1+pclath+cstack]
  4406                           ;strstr@h stored from wreg
  4407     0465  00FB               	movwf	strstr@h
  4408     0466                     i1l1858:
  4409     0466  0876               	movf	strstr@n,w
  4410     0467  1903               	btfsc	3,2
  4411     0468  2C6A               	goto	u121_21
  4412     0469  2C6B               	goto	u121_20
  4413     046A                     u121_21:
  4414     046A  2CAC               	goto	i1l1874
  4415     046B                     u121_20:
  4416     046B                     i1l1860:
  4417     046B  0876               	movf	strstr@n,w
  4418     046C  120A  118A  255C  120A  118A  	fcall	_strlen
  4419     0471  0871               	movf	?_strlen+1,w
  4420     0472  00FA               	movwf	strstr@nl+1
  4421     0473  0870               	movf	?_strlen,w
  4422     0474  00F9               	movwf	strstr@nl
  4423     0475  2C9F               	goto	i1l1870
  4424     0476                     i1l1862:
  4425     0476  0876               	movf	strstr@n,w
  4426     0477  00F0               	movwf	strncmp@r
  4427     0478  087A               	movf	strstr@nl+1,w
  4428     0479  00F2               	movwf	strncmp@n+1
  4429     047A  0879               	movf	strstr@nl,w
  4430     047B  00F1               	movwf	strncmp@n
  4431     047C  087B               	movf	strstr@h,w
  4432     047D  120A  118A  2408  120A  118A  	fcall	_strncmp
  4433     0482  0870               	movf	?_strncmp,w
  4434     0483  0471               	iorwf	?_strncmp+1,w
  4435     0484  1D03               	btfss	3,2
  4436     0485  2C87               	goto	u122_21
  4437     0486  2C88               	goto	u122_20
  4438     0487                     u122_21:
  4439     0487  2C8A               	goto	i1l1868
  4440     0488                     u122_20:
  4441     0488                     i1l1864:
  4442     0488  087B               	movf	strstr@h,w
  4443     0489  2CAD               	goto	i1l966
  4444     048A                     i1l1868:
  4445     048A  0876               	movf	strstr@n,w
  4446     048B  0084               	movwf	4
  4447     048C  120A  118A  2036  120A  118A  	fcall	stringdir
  4448     0491  00F7               	movwf	??_strstr
  4449     0492  01F8               	clrf	??_strstr+1
  4450     0493  0877               	movf	??_strstr,w
  4451     0494  00F0               	movwf	strchr@c
  4452     0495  0878               	movf	??_strstr+1,w
  4453     0496  00F1               	movwf	strchr@c+1
  4454     0497  087B               	movf	strstr@h,w
  4455     0498  3E01               	addlw	1
  4456     0499  120A  118A  25A6  120A  118A  	fcall	_strchr
  4457     049E  00FB               	movwf	strstr@h
  4458     049F                     i1l1870:
  4459     049F  087B               	movf	strstr@h,w
  4460     04A0  1903               	btfsc	3,2
  4461     04A1  2CA3               	goto	u123_21
  4462     04A2  2CA4               	goto	u123_20
  4463     04A3                     u123_21:
  4464     04A3  2CAC               	goto	i1l1874
  4465     04A4                     u123_20:
  4466     04A4                     i1l1872:
  4467     04A4  087B               	movf	strstr@h,w
  4468     04A5  0084               	movwf	4
  4469     04A6  1383               	bcf	3,7	;select IRP bank0
  4470     04A7  0800               	movf	0,w
  4471     04A8  1D03               	btfss	3,2
  4472     04A9  2CAB               	goto	u124_21
  4473     04AA  2CAC               	goto	u124_20
  4474     04AB                     u124_21:
  4475     04AB  2C76               	goto	i1l1862
  4476     04AC                     u124_20:
  4477     04AC                     i1l1874:
  4478     04AC  3000               	movlw	0
  4479     04AD                     i1l966:
  4480     04AD  0008               	return
  4481     04AE                     __end_of_strstr:
  4482                           
  4483                           	psect	text14
  4484     0408                     __ptext14:	
  4485 ;; *************** function _strncmp *****************
  4486 ;; Defined at:
  4487 ;;		line 3 in file "C:\Program Files\Microchip\xc8\v2.45\pic\sources\c99\common\strncmp.c"
  4488 ;; Parameters:    Size  Location     Type
  4489 ;;  l               1    wreg     PTR const unsigned char 
  4490 ;;		 -> NULL(0), StringReceive(30), 
  4491 ;;  r               1    0[COMMON] PTR const unsigned char 
  4492 ;;		 -> STR_11(6), STR_10(5), 
  4493 ;;  n               2    1[COMMON] unsigned int 
  4494 ;; Auto vars:     Size  Location     Type
  4495 ;;  l               1    5[COMMON] PTR const unsigned char 
  4496 ;;		 -> NULL(0), StringReceive(30), 
  4497 ;; Return value:  Size  Location     Type
  4498 ;;                  2    0[COMMON] int 
  4499 ;; Registers used:
  4500 ;;		wreg, fsr0l, fsr0h, status,2, status,0, btemp+1, pclath
  4501 ;; Tracked objects:
  4502 ;;		On entry : 0/0
  4503 ;;		On exit  : 0/0
  4504 ;;		Unchanged: 0/0
  4505 ;; Data sizes:     COMMON   BANK0   BANK1   BANK3   BANK2
  4506 ;;      Params:         3       0       0       0       0
  4507 ;;      Locals:         1       0       0       0       0
  4508 ;;      Temps:          2       0       0       0       0
  4509 ;;      Totals:         6       0       0       0       0
  4510 ;;Total ram usage:        6 bytes
  4511 ;; Hardware stack levels used: 2
  4512 ;; This function calls:
  4513 ;;		Nothing
  4514 ;; This function is called by:
  4515 ;;		_strstr
  4516 ;; This function uses a non-reentrant model
  4517 ;;
  4518                           
  4519     0408                     _strncmp:	
  4520                           ;psect for function _strncmp
  4521                           
  4522                           
  4523                           ;incstack = 0
  4524 ;; hardware stack exceeded
  4525                           ; Regs used in _strncmp: [wreg-fsr0h+status,2+status,0+btemp+1+pclath]
  4526                           ;strncmp@l stored from wreg
  4527     0408  00F5               	movwf	strncmp@l
  4528     0409                     i1l1744:
  4529     0409  3001               	movlw	1
  4530     040A  02F1               	subwf	strncmp@n,f
  4531     040B  3000               	movlw	0
  4532     040C  1C03               	skipc
  4533     040D  03F2               	decf	strncmp@n+1,f
  4534     040E  02F2               	subwf	strncmp@n+1,f
  4535     040F  0A71               	incf	strncmp@n,w
  4536     0410  1D03               	skipz
  4537     0411  2C16               	goto	u112_21
  4538     0412  0A72               	incf	strncmp@n+1,w
  4539     0413  1D03               	btfss	3,2
  4540     0414  2C16               	goto	u112_21
  4541     0415  2C17               	goto	u112_20
  4542     0416                     u112_21:
  4543     0416  2C28               	goto	i1l1754
  4544     0417                     u112_20:
  4545     0417                     i1l1746:
  4546     0417  01F0               	clrf	?_strncmp
  4547     0418  01F1               	clrf	?_strncmp+1
  4548     0419  2C64               	goto	i1l985
  4549     041A                     i1l1750:
  4550     041A  3001               	movlw	1
  4551     041B  00FF               	movwf	btemp+1
  4552     041C  087F               	movf	btemp+1,w
  4553     041D  07F5               	addwf	strncmp@l,f
  4554     041E  3001               	movlw	1
  4555     041F  00FF               	movwf	btemp+1
  4556     0420  087F               	movf	btemp+1,w
  4557     0421  07F0               	addwf	strncmp@r,f
  4558     0422                     i1l1752:
  4559     0422  3001               	movlw	1
  4560     0423  02F1               	subwf	strncmp@n,f
  4561     0424  3000               	movlw	0
  4562     0425  1C03               	skipc
  4563     0426  03F2               	decf	strncmp@n+1,f
  4564     0427  02F2               	subwf	strncmp@n+1,f
  4565     0428                     i1l1754:
  4566     0428  0875               	movf	strncmp@l,w
  4567     0429  0084               	movwf	4
  4568     042A  1383               	bcf	3,7	;select IRP bank0
  4569     042B  0800               	movf	0,w
  4570     042C  1903               	btfsc	3,2
  4571     042D  2C2F               	goto	u113_21
  4572     042E  2C30               	goto	u113_20
  4573     042F                     u113_21:
  4574     042F  2C52               	goto	i1l1762
  4575     0430                     u113_20:
  4576     0430                     i1l1756:
  4577     0430  0870               	movf	strncmp@r,w
  4578     0431  0084               	movwf	4
  4579     0432  120A  118A  2036  120A  118A  	fcall	stringdir
  4580     0437  3A00               	xorlw	0
  4581     0438  1903               	skipnz
  4582     0439  2C3B               	goto	u114_21
  4583     043A  2C3C               	goto	u114_20
  4584     043B                     u114_21:
  4585     043B  2C52               	goto	i1l1762
  4586     043C                     u114_20:
  4587     043C                     i1l1758:
  4588     043C  0871               	movf	strncmp@n,w
  4589     043D  0472               	iorwf	strncmp@n+1,w
  4590     043E  1903               	btfsc	3,2
  4591     043F  2C41               	goto	u115_21
  4592     0440  2C42               	goto	u115_20
  4593     0441                     u115_21:
  4594     0441  2C52               	goto	i1l1762
  4595     0442                     u115_20:
  4596     0442                     i1l1760:
  4597     0442  0870               	movf	strncmp@r,w
  4598     0443  0084               	movwf	4
  4599     0444  120A  118A  2036  120A  118A  	fcall	stringdir
  4600     0449  00F3               	movwf	??_strncmp
  4601     044A  0875               	movf	strncmp@l,w
  4602     044B  0084               	movwf	4
  4603     044C  0800               	movf	0,w
  4604     044D  0673               	xorwf	??_strncmp,w
  4605     044E  1903               	skipnz
  4606     044F  2C51               	goto	u116_21
  4607     0450  2C52               	goto	u116_20
  4608     0451                     u116_21:
  4609     0451  2C1A               	goto	i1l1750
  4610     0452                     u116_20:
  4611     0452                     i1l1762:
  4612     0452  0870               	movf	strncmp@r,w
  4613     0453  0084               	movwf	4
  4614     0454  120A  118A  2036  120A  118A  	fcall	stringdir
  4615     0459  00F3               	movwf	??_strncmp
  4616     045A  0875               	movf	strncmp@l,w
  4617     045B  0084               	movwf	4
  4618     045C  0800               	movf	0,w
  4619     045D  00F4               	movwf	??_strncmp+1
  4620     045E  0873               	movf	??_strncmp,w
  4621     045F  0274               	subwf	??_strncmp+1,w
  4622     0460  00F0               	movwf	?_strncmp
  4623     0461  01F1               	clrf	?_strncmp+1
  4624     0462  1C03               	skipc
  4625     0463  03F1               	decf	?_strncmp+1,f
  4626     0464                     i1l985:
  4627     0464  0008               	return
  4628     0465                     __end_of_strncmp:
  4629                           
  4630                           	psect	text15
  4631     055C                     __ptext15:	
  4632 ;; *************** function _strlen *****************
  4633 ;; Defined at:
  4634 ;;		line 5 in file "C:\Program Files\Microchip\xc8\v2.45\pic\sources\c99\common\strlen.c"
  4635 ;; Parameters:    Size  Location     Type
  4636 ;;  s               1    wreg     PTR const unsigned char 
  4637 ;;		 -> STR_11(6), STR_10(5), 
  4638 ;; Auto vars:     Size  Location     Type
  4639 ;;  s               1    3[COMMON] PTR const unsigned char 
  4640 ;;		 -> STR_11(6), STR_10(5), 
  4641 ;;  a               1    2[COMMON] PTR const unsigned char 
  4642 ;;		 -> STR_11(6), STR_10(5), 
  4643 ;; Return value:  Size  Location     Type
  4644 ;;                  2    0[COMMON] unsigned int 
  4645 ;; Registers used:
  4646 ;;		wreg, fsr0l, fsr0h, status,2, status,0, btemp+1, pclath
  4647 ;; Tracked objects:
  4648 ;;		On entry : 0/0
  4649 ;;		On exit  : 0/0
  4650 ;;		Unchanged: 0/0
  4651 ;; Data sizes:     COMMON   BANK0   BANK1   BANK3   BANK2
  4652 ;;      Params:         2       0       0       0       0
  4653 ;;      Locals:         2       0       0       0       0
  4654 ;;      Temps:          0       0       0       0       0
  4655 ;;      Totals:         4       0       0       0       0
  4656 ;;Total ram usage:        4 bytes
  4657 ;; Hardware stack levels used: 2
  4658 ;; This function calls:
  4659 ;;		Nothing
  4660 ;; This function is called by:
  4661 ;;		_strstr
  4662 ;; This function uses a non-reentrant model
  4663 ;;
  4664                           
  4665     055C                     _strlen:	
  4666                           ;psect for function _strlen
  4667                           
  4668                           
  4669                           ;incstack = 0
  4670 ;; hardware stack exceeded
  4671                           ; Regs used in _strlen: [wreg-fsr0h+status,2+status,0+btemp+1+pclath]
  4672                           ;strlen@s stored from wreg
  4673     055C  00F3               	movwf	strlen@s
  4674     055D                     i1l1734:
  4675     055D  0873               	movf	strlen@s,w
  4676     055E  00F2               	movwf	strlen@a
  4677     055F  2D64               	goto	i1l1738
  4678     0560                     i1l1736:
  4679     0560  3001               	movlw	1
  4680     0561  00FF               	movwf	btemp+1
  4681     0562  087F               	movf	btemp+1,w
  4682     0563  07F3               	addwf	strlen@s,f
  4683     0564                     i1l1738:
  4684     0564  0873               	movf	strlen@s,w
  4685     0565  0084               	movwf	4
  4686     0566  120A  118A  2036  120A  118A  	fcall	stringdir
  4687     056B  3A00               	xorlw	0
  4688     056C  1D03               	skipz
  4689     056D  2D6F               	goto	u111_21
  4690     056E  2D70               	goto	u111_20
  4691     056F                     u111_21:
  4692     056F  2D60               	goto	i1l1736
  4693     0570                     u111_20:
  4694     0570                     i1l1740:
  4695     0570  0872               	movf	strlen@a,w
  4696     0571  0273               	subwf	strlen@s,w
  4697     0572  00F0               	movwf	?_strlen
  4698     0573  01F1               	clrf	?_strlen+1
  4699     0574  1BF0               	btfsc	?_strlen,7
  4700     0575  03F1               	decf	?_strlen+1,f
  4701     0576                     i1l981:
  4702     0576  0008               	return
  4703     0577                     __end_of_strlen:
  4704                           
  4705                           	psect	text16
  4706     05A6                     __ptext16:	
  4707 ;; *************** function _strchr *****************
  4708 ;; Defined at:
  4709 ;;		line 3 in file "C:\Program Files\Microchip\xc8\v2.45\pic\sources\c99\common\strchr.c"
  4710 ;; Parameters:    Size  Location     Type
  4711 ;;  s               1    wreg     PTR const unsigned char 
  4712 ;;		 -> NULL(0), StringReceive(30), 
  4713 ;;  c               2    0[COMMON] int 
  4714 ;; Auto vars:     Size  Location     Type
  4715 ;;  s               1    2[COMMON] PTR const unsigned char 
  4716 ;;		 -> NULL(0), StringReceive(30), 
  4717 ;; Return value:  Size  Location     Type
  4718 ;;                  1    wreg      PTR unsigned char 
  4719 ;; Registers used:
  4720 ;;		wreg, fsr0l, fsr0h, status,2, status,0
  4721 ;; Tracked objects:
  4722 ;;		On entry : 0/0
  4723 ;;		On exit  : 0/0
  4724 ;;		Unchanged: 0/0
  4725 ;; Data sizes:     COMMON   BANK0   BANK1   BANK3   BANK2
  4726 ;;      Params:         2       0       0       0       0
  4727 ;;      Locals:         1       0       0       0       0
  4728 ;;      Temps:          0       0       0       0       0
  4729 ;;      Totals:         3       0       0       0       0
  4730 ;;Total ram usage:        3 bytes
  4731 ;; Hardware stack levels used: 1
  4732 ;; This function calls:
  4733 ;;		Nothing
  4734 ;; This function is called by:
  4735 ;;		_strstr
  4736 ;; This function uses a non-reentrant model
  4737 ;;
  4738                           
  4739     05A6                     _strchr:	
  4740                           ;psect for function _strchr
  4741                           
  4742                           
  4743                           ;incstack = 0
  4744                           ; Regs used in _strchr: [wreg-fsr0h+status,2+status,0]
  4745                           ;strchr@s stored from wreg
  4746     05A6  00F2               	movwf	strchr@s
  4747     05A7                     i1l972:
  4748     05A7                     i1l1766:
  4749     05A7  0872               	movf	strchr@s,w
  4750     05A8  0084               	movwf	4
  4751     05A9  1383               	bcf	3,7	;select IRP bank0
  4752     05AA  0800               	movf	0,w
  4753     05AB  0670               	xorwf	strchr@c,w
  4754     05AC  1D03               	skipz
  4755     05AD  2DAF               	goto	u117_21
  4756     05AE  2DB0               	goto	u117_20
  4757     05AF                     u117_21:
  4758     05AF  2DB2               	goto	i1l1772
  4759     05B0                     u117_20:
  4760     05B0                     i1l1768:
  4761     05B0  0872               	movf	strchr@s,w
  4762     05B1  2DBC               	goto	i1l974
  4763     05B2                     i1l1772:
  4764     05B2  0872               	movf	strchr@s,w
  4765     05B3  0084               	movwf	4
  4766     05B4  3001               	movlw	1
  4767     05B5  07F2               	addwf	strchr@s,f
  4768     05B6  0800               	movf	0,w
  4769     05B7  1D03               	btfss	3,2
  4770     05B8  2DBA               	goto	u118_21
  4771     05B9  2DBB               	goto	u118_20
  4772     05BA                     u118_21:
  4773     05BA  2DA7               	goto	i1l972
  4774     05BB                     u118_20:
  4775     05BB                     i1l1774:
  4776     05BB  3000               	movlw	0
  4777     05BC                     i1l974:
  4778     05BC  0008               	return
  4779     05BD                     __end_of_strchr:
  4780                           
  4781                           	psect	text17
  4782     053D                     __ptext17:	
  4783 ;; *************** function _ClearStringReceive *****************
  4784 ;; Defined at:
  4785 ;;		line 214 in file "main.c"
  4786 ;; Parameters:    Size  Location     Type
  4787 ;;		None
  4788 ;; Auto vars:     Size  Location     Type
  4789 ;;  i               2    0[COMMON] int 
  4790 ;; Return value:  Size  Location     Type
  4791 ;;                  1    wreg      void 
  4792 ;; Registers used:
  4793 ;;		wreg, fsr0l, fsr0h, status,2, status,0, btemp+1
  4794 ;; Tracked objects:
  4795 ;;		On entry : 0/0
  4796 ;;		On exit  : 0/0
  4797 ;;		Unchanged: 0/0
  4798 ;; Data sizes:     COMMON   BANK0   BANK1   BANK3   BANK2
  4799 ;;      Params:         0       0       0       0       0
  4800 ;;      Locals:         2       0       0       0       0
  4801 ;;      Temps:          0       0       0       0       0
  4802 ;;      Totals:         2       0       0       0       0
  4803 ;;Total ram usage:        2 bytes
  4804 ;; Hardware stack levels used: 1
  4805 ;; This function calls:
  4806 ;;		Nothing
  4807 ;; This function is called by:
  4808 ;;		_ISR
  4809 ;; This function uses a non-reentrant model
  4810 ;;
  4811                           
  4812     053D                     _ClearStringReceive:	
  4813                           ;psect for function _ClearStringReceive
  4814                           
  4815     053D                     i1l1878:	
  4816                           ;incstack = 0
  4817                           ; Regs used in _ClearStringReceive: [wreg-fsr0h+status,2+status,0+btemp+1]
  4818                           
  4819                           
  4820                           ;main.c: 215:     pos = 0;
  4821     053D  1283               	bcf	3,5	;RP0=0, select bank0
  4822     053E  1303               	bcf	3,6	;RP1=0, select bank0
  4823     053F  01A8               	clrf	_pos
  4824     0540  01A9               	clrf	_pos+1
  4825                           
  4826                           ;main.c: 216:     for (int i = 0; i < 30; i++)
  4827     0541  01F0               	clrf	ClearStringReceive@i
  4828     0542  01F1               	clrf	ClearStringReceive@i+1
  4829     0543                     i1l1884:
  4830                           
  4831                           ;main.c: 217:         StringReceive[i] = '\0';
  4832     0543  0870               	movf	ClearStringReceive@i,w
  4833     0544  3E2A               	addlw	(low (_StringReceive| 0))& (0+255)
  4834     0545  0084               	movwf	4
  4835     0546  1383               	bcf	3,7	;select IRP bank0
  4836     0547  0180               	clrf	0
  4837     0548                     i1l1886:
  4838     0548  3001               	movlw	1
  4839     0549  07F0               	addwf	ClearStringReceive@i,f
  4840     054A  1803               	skipnc
  4841     054B  0AF1               	incf	ClearStringReceive@i+1,f
  4842     054C  3000               	movlw	0
  4843     054D  07F1               	addwf	ClearStringReceive@i+1,f
  4844     054E                     i1l1888:
  4845     054E  0871               	movf	ClearStringReceive@i+1,w
  4846     054F  3A80               	xorlw	128
  4847     0550  00FF               	movwf	btemp+1
  4848     0551  3080               	movlw	128
  4849     0552  027F               	subwf	btemp+1,w
  4850     0553  1D03               	skipz
  4851     0554  2D57               	goto	u125_25
  4852     0555  301E               	movlw	30
  4853     0556  0270               	subwf	ClearStringReceive@i,w
  4854     0557                     u125_25:
  4855     0557  1C03               	skipc
  4856     0558  2D5A               	goto	u125_21
  4857     0559  2D5B               	goto	u125_20
  4858     055A                     u125_21:
  4859     055A  2D43               	goto	i1l1884
  4860     055B                     u125_20:
  4861     055B                     i1l269:
  4862     055B  0008               	return
  4863     055C                     __end_of_ClearStringReceive:
  4864     007E                     btemp	set	126	;btemp
  4865     007E                     wtemp0	set	126
  4866                           
  4867                           	psect	config
  4868                           
  4869                           ;Config register CONFIG1 @ 0x2007
  4870                           ;	Oscillator Selection bits
  4871                           ;	FOSC = HS, HS oscillator: High-speed crystal/resonator on RA6/OSC2/CLKOUT and RA7/OSC1
      +                          /CLKIN
  4872                           ;	Watchdog Timer Enable bit
  4873                           ;	WDTE = OFF, WDT disabled and can be enabled by SWDTEN bit of the WDTCON register
  4874                           ;	Power-up Timer Enable bit
  4875                           ;	PWRTE = OFF, PWRT disabled
  4876                           ;	RE3/MCLR pin function select bit
  4877                           ;	MCLRE = OFF, RE3/MCLR pin function is digital input, MCLR internally tied to VDD
  4878                           ;	Code Protection bit
  4879                           ;	CP = OFF, Program memory code protection is disabled
  4880                           ;	Data Code Protection bit
  4881                           ;	CPD = OFF, Data memory code protection is disabled
  4882                           ;	Brown Out Reset Selection bits
  4883                           ;	BOREN = ON, BOR enabled
  4884                           ;	Internal External Switchover bit
  4885                           ;	IESO = OFF, Internal/External Switchover mode is disabled
  4886                           ;	Fail-Safe Clock Monitor Enabled bit
  4887                           ;	FCMEN = OFF, Fail-Safe Clock Monitor is disabled
  4888                           ;	Low Voltage Programming Enable bit
  4889                           ;	LVP = OFF, RB3 pin has digital I/O, HV on MCLR must be used for programming
  4890                           ;	In-Circuit Debugger Mode bit
  4891                           ;	DEBUG = 0x1, unprogrammed default
  4892     2007                     	org	8199
  4893     2007  23D2               	dw	9170
  4894                           
  4895                           ;Config register CONFIG2 @ 0x2008
  4896                           ;	Brown-out Reset Selection bit
  4897                           ;	BOR4V = BOR40V, Brown-out Reset set to 4.0V
  4898                           ;	Flash Program Memory Self Write Enable bits
  4899                           ;	WRT = OFF, Write protection off
  4900     2008                     	org	8200
  4901     2008  3FFF               	dw	16383

Data Sizes:
    Strings     139
    Constant    17
    Data        2
    BSS         72
    Persistent  0
    Stack       0

Auto Spaces:
    Space          Size  Autos    Used
    COMMON           14     12      14
    BANK0            80     17      57
    BANK1            80      0      32
    BANK3            96      0       0
    BANK2            96      0       0

Pointer List with Targets:

    LCD_write_string@string	PTR unsigned char  size(1) Largest target is 19
		 -> STR_1(CODE[10]), STR_2(CODE[11]), STR_3(CODE[16]), STR_4(CODE[13]), 
		 -> STR_5(CODE[12]), STR_6(CODE[19]), STR_7(CODE[13]), STR_8(CODE[12]), 
		 -> STR_9(CODE[19]), 

    sp__strchr	PTR unsigned char  size(1) Largest target is 30
		 -> StringReceive(BANK0[30]), NULL(NULL[0]), 

    sp__strstr	PTR unsigned char  size(1) Largest target is 30
		 -> StringReceive(BANK0[30]), NULL(NULL[0]), 

    strchr@s	PTR const unsigned char  size(1) Largest target is 30
		 -> StringReceive(BANK0[30]), NULL(NULL[0]), 

    strlen@a	PTR const unsigned char  size(1) Largest target is 6
		 -> STR_10(CODE[5]), STR_11(CODE[6]), 

    strlen@s	PTR const unsigned char  size(1) Largest target is 6
		 -> STR_10(CODE[5]), STR_11(CODE[6]), 

    strncmp@l	PTR const unsigned char  size(1) Largest target is 30
		 -> StringReceive(BANK0[30]), NULL(NULL[0]), 

    strncmp@r	PTR const unsigned char  size(1) Largest target is 6
		 -> STR_10(CODE[5]), STR_11(CODE[6]), 

    strstr@h	PTR const unsigned char  size(1) Largest target is 30
		 -> StringReceive(BANK0[30]), NULL(NULL[0]), 

    strstr@n	PTR const unsigned char  size(1) Largest target is 6
		 -> STR_10(CODE[5]), STR_11(CODE[6]), 


Critical Paths under _main in COMMON

    None.

Critical Paths under _ISR in COMMON

    _ISR->_strstr
    _strstr->_strncmp

Critical Paths under _main in BANK0

    _main->_picInit
    _picInit->_LCD_init
    _LCD_init->_LCD_clear
    _openDoor->_LCD_cursor_set
    _openDoor->_LCD_write_string
    _closeDoor->_LCD_cursor_set
    _closeDoor->_LCD_write_string
    _LCD_write_string->_LCD_write_data
    _LCD_write_data->_LCD_pulse_clock
    _LCD_cursor_set->_LCD_write_command
    _LCD_clear->_LCD_write_command
    _LCD_write_command->_LCD_pulse_clock

Critical Paths under _ISR in BANK0

    None.

Critical Paths under _main in BANK1

    None.

Critical Paths under _ISR in BANK1

    None.

Critical Paths under _main in BANK3

    None.

Critical Paths under _ISR in BANK3

    None.

Critical Paths under _main in BANK2

    None.

Critical Paths under _ISR in BANK2

    None.

Call Graph Tables:

 ---------------------------------------------------------------------------------
 (Depth) Function   	        Calls       Base Space   Used Autos Params    Refs
 ---------------------------------------------------------------------------------
 (0) _main                                                 3     3      0    7508
                                             14 BANK0      3     3      0
                          _LCD_clear
                     _LCD_cursor_set
                   _LCD_write_string
                          _closeDoor
                           _openDoor
                            _picInit
 ---------------------------------------------------------------------------------
 (1) _picInit                                              3     3      0    2141
                                             11 BANK0      3     3      0
                           _InitUART
                          _LCD_clear
                     _LCD_cursor_set
                           _LCD_init
                   _LCD_write_string
 ---------------------------------------------------------------------------------
 (2) _LCD_init                                             2     2      0     352
                                              9 BANK0      2     2      0
                          _LCD_clear
                    _LCD_pulse_clock
                  _LCD_write_command
 ---------------------------------------------------------------------------------
 (2) _InitUART                                             0     0      0       0
 ---------------------------------------------------------------------------------
 (1) _openDoor                                             3     3      0    1789
                                             10 BANK0      3     3      0
                          _LCD_clear
                     _LCD_cursor_set
                   _LCD_write_string
 ---------------------------------------------------------------------------------
 (1) _closeDoor                                            3     3      0    1789
                                             10 BANK0      3     3      0
                          _LCD_clear
                     _LCD_cursor_set
                   _LCD_write_string
 ---------------------------------------------------------------------------------
 (2) _LCD_write_string                                     2     2      0     563
                                              8 BANK0      2     2      0
                     _LCD_write_data
 ---------------------------------------------------------------------------------
 (3) _LCD_write_data                                       3     3      0     176
                                              5 BANK0      3     3      0
                    _LCD_pulse_clock
 ---------------------------------------------------------------------------------
 (2) _LCD_cursor_set                                       2     1      1    1050
                                              8 BANK0      2     1      1
                  _LCD_write_command
 ---------------------------------------------------------------------------------
 (3) _LCD_clear                                            1     1      0     176
                                              8 BANK0      1     1      0
                  _LCD_write_command
 ---------------------------------------------------------------------------------
 (3) _LCD_write_command                                    3     3      0     176
                                              5 BANK0      3     3      0
                    _LCD_pulse_clock
 ---------------------------------------------------------------------------------
 (4) _LCD_pulse_clock                                      1     1      0       0
                                              4 BANK0      1     1      0
 ---------------------------------------------------------------------------------
 Estimated maximum stack depth 4
 ---------------------------------------------------------------------------------
 (Depth) Function   	        Calls       Base Space   Used Autos Params    Refs
 ---------------------------------------------------------------------------------
 (6) _ISR                                                  4     4      0    1192
                                              0 BANK0      4     4      0
                 _ClearStringReceive
                             _strstr
 ---------------------------------------------------------------------------------
 (7) _strstr                                               6     5      1    1124
                                              6 COMMON     6     5      1
                             _strchr
                             _strlen
                            _strncmp
 ---------------------------------------------------------------------------------
 (9) _strncmp                                              6     3      3     364
                                              0 COMMON     6     3      3
 ---------------------------------------------------------------------------------
 (9) _strlen                                               4     2      2     123
                                              0 COMMON     4     2      2
 ---------------------------------------------------------------------------------
 (8) _strchr                                               3     1      2     197
                                              0 COMMON     3     1      2
 ---------------------------------------------------------------------------------
 (7) _ClearStringReceive                                   2     2      0      68
                                              0 COMMON     2     2      0
 ---------------------------------------------------------------------------------
 Estimated maximum stack depth 9
 ---------------------------------------------------------------------------------

 Call Graph Graphs:

 _main (ROOT)
   _LCD_clear
     _LCD_write_command
       _LCD_pulse_clock
   _LCD_cursor_set
     _LCD_write_command
   _LCD_write_string
     _LCD_write_data
       _LCD_pulse_clock
   _closeDoor
     _LCD_clear
     _LCD_cursor_set
     _LCD_write_string
   _openDoor
     _LCD_clear
     _LCD_cursor_set
     _LCD_write_string
   _picInit
     _InitUART
     _LCD_clear
     _LCD_cursor_set
     _LCD_init
       _LCD_clear
       _LCD_pulse_clock
       _LCD_write_command
     _LCD_write_string

 _ISR (ROOT)
   _ClearStringReceive
   _strstr
     _strchr
     _strlen
     _strncmp

 Address spaces:
Name               Size   Autos  Total    Cost      Usage
BANK3               60      0       0       9        0.0%
BITBANK3            60      0       0       8        0.0%
SFR3                 0      0       0       4        0.0%
BITSFR3              0      0       0       4        0.0%
BANK2               60      0       0      11        0.0%
BITBANK2            60      0       0      10        0.0%
SFR2                 0      0       0       5        0.0%
BITSFR2              0      0       0       5        0.0%
BANK1               50      0      20       7       40.0%
BITBANK1            50      0       0       6        0.0%
SFR1                 0      0       0       2        0.0%
BITSFR1              0      0       0       2        0.0%
BANK0               50     11      39       5       71.2%
BITBANK0            50      0       0       4        0.0%
SFR0                 0      0       0       1        0.0%
BITSFR0              0      0       0       1        0.0%
COMMON               E      C       E       1      100.0%
BITCOMMON            E      0       0       0        0.0%
CODE                 0      0       0       0        0.0%
DATA                 0      0      67      12        0.0%
ABS                  0      0      67       3        0.0%
NULL                 0      0       0       0        0.0%
STACK                0      0       0       2        0.0%
EEDATA             100      0       0       0        0.0%


Microchip Technology PIC Macro Assembler V2.45 build 20230818022343 
Symbol Table                                                                                   Fri Jan 26 02:46:33 2024

                         pc 0002                          l20 05A5                          l84 0516  
                        fsr 0004                         l110 05CA                         l103 0276  
                       l300 058E                         l146 016B                         l250 0346  
                       l139 01FF                         l171 053C                         l245 04E5  
                       l255 03A7                         _GIE 005F                         _RB0 0030  
                       _RB1 0031                         _RB2 0032                         _RB3 0033  
                       _RB4 0034                         _RB5 0035                         _RB6 0036  
                       _RB7 0037                         _ISR 0277                         u945 0173  
                       u955 0185                         u965 0198                         u975 01AA  
                       u985 01C2                         u995 01D4                         _pos 0028  
                       fsr0 0004                         indf 0000                        ?_ISR 0070  
                      l2080 03B7                        l1610 016F                        l2090 03E0  
                      l2082 03C1                        l2074 03A8                        l1604 05BD  
                      l1620 01E4                        l1612 0170                        l1700 026B  
                      l2092 03EA                        l2084 03C7                        l2076 03AD  
                      l1606 05C0                        l1622 01F1                        l1614 01B8  
                      l1630 0124                        l1710 052F                        l1702 0271  
                      l2094 03F0                        l2086 03CC                        l2078 03B2  
                      l1608 05C7                        l1624 01FA                        l1616 01BD  
                      l1640 0166                        l1632 0129                        l1704 051A  
                      l1800 02F1                        l1720 0581                        l1712 0577  
                      l2096 03F5                        l2088 03DB                        l1618 01D1  
                      l1642 058F                        l1650 04EE                        l1634 013D  
                      l1626 00DB                        l1706 051C                        l1810 0309  
                      l1802 02F7                        l1730 058C                        l1722 0584  
                      l1714 057C                        l1644 0595                        l1660 0506  
                      l1652 04F2                        l1636 0150                        l1628 00DC  
                      l1708 0529                        l1812 0317                        l1804 02FF  
                      l1820 0331                        l1732 058D                        l1724 0585  
                      l1716 057D                        l1646 059F                        l1662 050C  
                      l1654 04F8                        l1638 015D                        l1830 0354  
                      l1822 0336                        l1814 031C                        l1806 0305  
                      l1726 0588                        l1718 057E                        l1670 022F  
                      l1664 0510                        l1656 04FC                        l1648 04E9  
                      l1840 036A                        l1832 0358                        l1824 0340  
                      l1816 032C                        l1808 0308                        l1728 0589  
                      l1680 023A                        l1672 0232                        l1658 0502  
                      l1850 0390                        l1842 0378                        l1834 0360  
                      l1826 0347                        l1818 032F                        l1690 0258  
                      l1682 0249                        l1674 0233                        l1666 0200  
                      l1844 037D                        l1836 0366                        l1828 034F  
                      l1852 0392                        l1692 0259                        l1684 024F  
                      l1676 0234                        l1668 0224                        l1780 04AE  
                      l1854 0397                        l1846 0387                        l1838 0369  
                      l1694 025A                        l1686 0254                        l1678 0235  
                      l1790 04CC                        l1782 04B3                        l1856 03A1  
                      l1848 038D                        l1696 025F                        l1688 0257  
                      l1792 04D2                        l1784 04B8                        l1698 0265  
                      l1794 04E0                        l1786 04BD                        l1796 02E4  
                      l1788 04C2                        l1798 02EC                        STR_1 00C0  
                      STR_2 00B5                        STR_3 0073                        STR_4 0083  
                      STR_5 009D                        STR_6 004D                        STR_7 0090  
                      STR_8 00A9                        STR_9 0060                        _CREN 00C4  
                      u1100 053C                        u1005 00DF                        u1101 053B  
                      u1015 00F1                        u1200 034F                        u1025 0104  
                      u1201 034E                        u1035 0116                        u1060 04EE  
                      u1061 04ED                        u1045 012E                        u1070 04F8  
                      u1071 04F7                        u1055 0140                        u1080 0502  
                      u1081 0501                        u1090 050C                        u1091 050B  
                      u1190 02EC                        u1191 02EB                        u1607 024D  
                      u1617 0311                        u1627 0372                        u1637 0599  
                      u1557 03D4                        u1647 05C4                        u1567 03FD  
                      u1577 04DA                        u1587 022A                        u1597 0240  
                      _PEIE 005E                        _RCIF 0065                        _OERR 00C1  
                      _TXIF 0064                        _main 03A8                        btemp 007E  
                      start 0012                       ??_ISR 0048            __end_of_LCD_init 0277  
                     ?_main 0070                       STR_10 00D0                       STR_11 00CA  
                     STR_12 00D5                       i1l264 02D7                       i1l269 055B  
                     i1l972 05A7                       i1l981 0576                       i1l974 05BC  
                     i1l966 04AD                       i1l985 0464                       _RCREG 001A  
                     _SPBRG 0099                       _TXREG 0019               _StringDisplay 00A0  
           __end_of_picInit 04E6               _StringReceive 002A                  _KeyPadChar 003C  
                     pclath 000A                       status 0003                       wtemp0 007E  
           __end_of_strncmp 0465             __initialization 0015                __end_of_main 0408  
          __end_of_InitUART 058F           ?_LCD_write_string 0070                      ??_main 0056  
        ??_LCD_write_string 0050           __end_of_LCD_clear 05A6                      i1l2100 027B  
                    i1l2110 029E                      i1l2102 0284                      u111_20 0570  
                    i1l2120 02C2                      i1l2112 02A8                      i1l2104 028A  
                    u111_21 056F                      i1l2122 02C7                      i1l2114 02AD  
                    i1l2106 0290                      i1l2124 02D2                      i1l2116 02BA  
                    i1l2108 0291                      i1l2118 02BE                      u112_20 0417  
                    u112_21 0416                      u113_20 0430                      u121_20 046B  
                    u113_21 042F                      u121_21 046A                      i1l2098 0277  
                    i1l1740 0570                      i1l1734 055D                      i1l1750 041A  
                    i1l1736 0560                      i1l1760 0442                      u114_20 043C  
                    i1l1752 0422                      i1l1744 0409                      u122_20 0488  
                    u114_21 043B                      u122_21 0487                      i1l1738 0564  
                    i1l1762 0452                      i1l1746 0417                      i1l1754 0428  
                    i1l1772 05B2                      i1l1756 0430                      i1l1860 046B  
                    i1l1774 05BB                      i1l1766 05A7                      i1l1758 043C  
                    i1l1862 0476                      i1l1870 049F                      i1l1768 05B0  
                    u115_20 0442                      i1l1872 04A4                      u123_20 04A4  
                    i1l1864 0488                      u115_21 0441                      u123_21 04A3  
                    i1l1874 04AC                      i1l1858 0466                      i1l1884 0543  
                    i1l1868 048A                      i1l1886 0548                      i1l1878 053D  
                    i1l1888 054E                      u116_20 0452                      u124_20 04AC  
                    u116_21 0451                      u124_21 04AB                      u125_20 055B  
                    u117_20 05B0                      u125_21 055A                      u117_21 05AF  
                    u125_25 0557                      u118_20 05BB                      u150_20 027B  
                    u118_21 05BA                      u150_21 027A                      u151_20 0284  
                    u151_21 0283                      u152_20 029E                      u152_21 029D  
                    u153_20 02BA                      u153_21 02B9                      u154_20 02D2  
                    u154_21 02D1      LCD_write_string@string 0051                      _TRISB0 0430  
                    _TRISB1 0431                      _TRISB2 0432                      _TRISB3 0433  
                    _TRISB4 0434                      _TRISB5 0435                      _TRISB6 0436  
                    _TRISB7 0437                      _TRISC6 043E                      _TRISC7 043F  
                    _strchr 05A6                      _strlen 055C            __end_of_openDoor 0347  
                    _strstr 0465  __end_of_ClearStringReceive 055C                   ??_picInit 0053  
              __pdataCOMMON 007C                      saved_w 007E                   ??_strncmp 0073  
   __end_of__initialization 0032                   ?_LCD_init 0070              __pcstackCOMMON 0070  
            _LCD_entry_mode 007D           _LCD_write_command 016C              _LCD_cursor_set 04E6  
        ?_LCD_write_command 0070         ??_LCD_write_command 004D                  __pbssBANK0 0020  
                __pbssBANK1 00A0                   ?_InitUART 0070                  ??_LCD_init 0051  
 __end_of_LCD_write_command 0200                  __pmaintext 03A8      __end_of_LCD_cursor_set 0517  
                __pintentry 0004         ClearStringReceive@i 0070                     ?_strchr 0070  
                   ?_strlen 0070                     ?_strstr 0076                  __stringtab 0036  
  LCD_write_command@command 004F                  ??_InitUART 004C                  _doorStatus 0026  
                 ?_openDoor 0070           __end_of_closeDoor 03A8             ?_LCD_cursor_set 0050  
            _LCD_write_data 00D8                     __ptext1 04AE                     __ptext2 0200  
                   __ptext3 0577                     __ptext4 02E4                     __ptext5 0347  
                   __ptext6 0517                     __ptext7 00D8                     __ptext8 04E6  
                   __ptext9 058F                     _picInit 04AE                     clrloop0 05CC  
                   _strncmp 0408                   _LCD_clear 058F        end_of_initialization 0032  
      LCD_cursor_set@column 0050                  ??_openDoor 0052         _LCD_display_control 007C  
    __end_of_LCD_write_data 016C                   _RCSTAbits 0018                     strchr@c 0070  
                   strchr@s 0072                     strlen@a 0072                     strlen@s 0073  
                   strstr@h 007B                     strstr@n 0076                   _PORTBbits 0006  
                 _PORTDbits 0008           ??_LCD_pulse_clock 004C                   _TRISBbits 0086  
                 _TRISDbits 0088                  ?_LCD_clear 0070          _ClearStringReceive 053D  
                 _TXSTAbits 0098         ?_ClearStringReceive 0070             ?_LCD_write_data 0070  
             __pidataCOMMON 05D3          __end_of_KeyPadChar 004D              __end_of_strchr 05BD  
            __end_of_strlen 0577              __end_of_strstr 04AE         start_initialization 0015  
      ??_ClearStringReceive 0070                 __end_of_ISR 02E4                    ??_strchr 0072  
                  ??_strlen 0072                    ??_strstr 0077                   ___latbits 0002  
             __pcstackBANK0 0048                 ??_LCD_clear 0050            _LCD_write_string 0517  
          ??_LCD_cursor_set 0051                   _closeDoor 0347                   __pstrings 0036  
                  ?_picInit 0070          LCD_write_data@data 004F                    ?_strncmp 0070  
         interrupt_function 0004                    _LCD_init 0200                   clear_ram0 05CB  
                  _PIE1bits 008C                    _PIR1bits 000C             _LCD_pulse_clock 05BD  
                ?_closeDoor 0070                 __stringbase 003B                    _InitUART 0577  
          ??_LCD_write_data 004D                   modff@F522 0020           LCD_cursor_set@row 0051  
        __end_of__stringtab 003C                    __ptext10 016C                    __ptext11 05BD  
                  __ptext12 0277                    __ptext13 0465                    __ptext14 0408  
                  __ptext15 055C                    __ptext16 05A6                    __ptext17 053D  
   __end_of_LCD_pulse_clock 05CB                    _openDoor 02E4                 ??_closeDoor 0052  
  __end_of_LCD_write_string 053D           LCD_write_string@i 0050                    intlevel1 0000  
                 stringcode 0036                    strncmp@l 0075                    strncmp@n 0071  
                  strncmp@r 0070                    stringdir 0036                    stringtab 0036  
                  strstr@nl 0079                _StatusChange 0024            ?_LCD_pulse_clock 0070  
